   1              		.cpu cortex-m4
   2              		.eabi_attribute 20, 1
   3              		.eabi_attribute 21, 1
   4              		.eabi_attribute 23, 3
   5              		.eabi_attribute 24, 1
   6              		.eabi_attribute 25, 1
   7              		.eabi_attribute 26, 1
   8              		.eabi_attribute 30, 6
   9              		.eabi_attribute 34, 1
  10              		.eabi_attribute 18, 4
  11              		.file	"gd32f30x_bkp.c"
  12              		.text
  13              	.Ltext0:
  14              		.cfi_sections	.debug_frame
  15              		.section	.text.bkp_deinit,"ax",%progbits
  16              		.align	1
  17              		.global	bkp_deinit
  18              		.arch armv7e-m
  19              		.syntax unified
  20              		.thumb
  21              		.thumb_func
  22              		.fpu softvfp
  24              	bkp_deinit:
  25              	.LFB116:
  26              		.file 1 "../Firmware/GD32F30x_standard_peripheral/Source/gd32f30x_bkp.c"
   1:../Firmware/GD32F30x_standard_peripheral/Source/gd32f30x_bkp.c **** /*!
   2:../Firmware/GD32F30x_standard_peripheral/Source/gd32f30x_bkp.c ****     \file    gd32f30x_bkp.c
   3:../Firmware/GD32F30x_standard_peripheral/Source/gd32f30x_bkp.c ****     \brief   BKP driver
   4:../Firmware/GD32F30x_standard_peripheral/Source/gd32f30x_bkp.c **** 
   5:../Firmware/GD32F30x_standard_peripheral/Source/gd32f30x_bkp.c ****    \version 2024-12-20, V3.0.1, firmware for GD32F30x
   6:../Firmware/GD32F30x_standard_peripheral/Source/gd32f30x_bkp.c **** */
   7:../Firmware/GD32F30x_standard_peripheral/Source/gd32f30x_bkp.c **** 
   8:../Firmware/GD32F30x_standard_peripheral/Source/gd32f30x_bkp.c **** /*
   9:../Firmware/GD32F30x_standard_peripheral/Source/gd32f30x_bkp.c ****     Copyright (c) 2024, GigaDevice Semiconductor Inc.
  10:../Firmware/GD32F30x_standard_peripheral/Source/gd32f30x_bkp.c **** 
  11:../Firmware/GD32F30x_standard_peripheral/Source/gd32f30x_bkp.c ****     Redistribution and use in source and binary forms, with or without modification, 
  12:../Firmware/GD32F30x_standard_peripheral/Source/gd32f30x_bkp.c **** are permitted provided that the following conditions are met:
  13:../Firmware/GD32F30x_standard_peripheral/Source/gd32f30x_bkp.c **** 
  14:../Firmware/GD32F30x_standard_peripheral/Source/gd32f30x_bkp.c ****     1. Redistributions of source code must retain the above copyright notice, this 
  15:../Firmware/GD32F30x_standard_peripheral/Source/gd32f30x_bkp.c ****        list of conditions and the following disclaimer.
  16:../Firmware/GD32F30x_standard_peripheral/Source/gd32f30x_bkp.c ****     2. Redistributions in binary form must reproduce the above copyright notice, 
  17:../Firmware/GD32F30x_standard_peripheral/Source/gd32f30x_bkp.c ****        this list of conditions and the following disclaimer in the documentation 
  18:../Firmware/GD32F30x_standard_peripheral/Source/gd32f30x_bkp.c ****        and/or other materials provided with the distribution.
  19:../Firmware/GD32F30x_standard_peripheral/Source/gd32f30x_bkp.c ****     3. Neither the name of the copyright holder nor the names of its contributors 
  20:../Firmware/GD32F30x_standard_peripheral/Source/gd32f30x_bkp.c ****        may be used to endorse or promote products derived from this software without 
  21:../Firmware/GD32F30x_standard_peripheral/Source/gd32f30x_bkp.c ****        specific prior written permission.
  22:../Firmware/GD32F30x_standard_peripheral/Source/gd32f30x_bkp.c **** 
  23:../Firmware/GD32F30x_standard_peripheral/Source/gd32f30x_bkp.c ****     THIS SOFTWARE IS PROVIDED BY THE COPYRIGHT HOLDERS AND CONTRIBUTORS "AS IS" 
  24:../Firmware/GD32F30x_standard_peripheral/Source/gd32f30x_bkp.c **** AND ANY EXPRESS OR IMPLIED WARRANTIES, INCLUDING, BUT NOT LIMITED TO, THE IMPLIED 
  25:../Firmware/GD32F30x_standard_peripheral/Source/gd32f30x_bkp.c **** WARRANTIES OF MERCHANTABILITY AND FITNESS FOR A PARTICULAR PURPOSE ARE DISCLAIMED. 
  26:../Firmware/GD32F30x_standard_peripheral/Source/gd32f30x_bkp.c **** IN NO EVENT SHALL THE COPYRIGHT HOLDER OR CONTRIBUTORS BE LIABLE FOR ANY DIRECT, 
  27:../Firmware/GD32F30x_standard_peripheral/Source/gd32f30x_bkp.c **** INDIRECT, INCIDENTAL, SPECIAL, EXEMPLARY, OR CONSEQUENTIAL DAMAGES (INCLUDING, BUT 
  28:../Firmware/GD32F30x_standard_peripheral/Source/gd32f30x_bkp.c **** NOT LIMITED TO, PROCUREMENT OF SUBSTITUTE GOODS OR SERVICES; LOSS OF USE, DATA, OR 
  29:../Firmware/GD32F30x_standard_peripheral/Source/gd32f30x_bkp.c **** PROFITS; OR BUSINESS INTERRUPTION) HOWEVER CAUSED AND ON ANY THEORY OF LIABILITY, 
  30:../Firmware/GD32F30x_standard_peripheral/Source/gd32f30x_bkp.c **** WHETHER IN CONTRACT, STRICT LIABILITY, OR TORT (INCLUDING NEGLIGENCE OR OTHERWISE) 
  31:../Firmware/GD32F30x_standard_peripheral/Source/gd32f30x_bkp.c **** ARISING IN ANY WAY OUT OF THE USE OF THIS SOFTWARE, EVEN IF ADVISED OF THE POSSIBILITY 
  32:../Firmware/GD32F30x_standard_peripheral/Source/gd32f30x_bkp.c **** OF SUCH DAMAGE.
  33:../Firmware/GD32F30x_standard_peripheral/Source/gd32f30x_bkp.c **** */
  34:../Firmware/GD32F30x_standard_peripheral/Source/gd32f30x_bkp.c **** 
  35:../Firmware/GD32F30x_standard_peripheral/Source/gd32f30x_bkp.c **** #include "gd32f30x_bkp.h"
  36:../Firmware/GD32F30x_standard_peripheral/Source/gd32f30x_bkp.c **** 
  37:../Firmware/GD32F30x_standard_peripheral/Source/gd32f30x_bkp.c **** #define TAMPER_FLAG_SHIFT          ((uint8_t)8U)
  38:../Firmware/GD32F30x_standard_peripheral/Source/gd32f30x_bkp.c **** 
  39:../Firmware/GD32F30x_standard_peripheral/Source/gd32f30x_bkp.c **** /*!
  40:../Firmware/GD32F30x_standard_peripheral/Source/gd32f30x_bkp.c ****     \brief      reset BKP registers
  41:../Firmware/GD32F30x_standard_peripheral/Source/gd32f30x_bkp.c ****     \param[in]  none
  42:../Firmware/GD32F30x_standard_peripheral/Source/gd32f30x_bkp.c ****     \param[out] none
  43:../Firmware/GD32F30x_standard_peripheral/Source/gd32f30x_bkp.c ****     \retval     none
  44:../Firmware/GD32F30x_standard_peripheral/Source/gd32f30x_bkp.c **** */
  45:../Firmware/GD32F30x_standard_peripheral/Source/gd32f30x_bkp.c **** void bkp_deinit(void)
  46:../Firmware/GD32F30x_standard_peripheral/Source/gd32f30x_bkp.c **** {
  27              		.loc 1 46 1
  28              		.cfi_startproc
  29              		@ args = 0, pretend = 0, frame = 0
  30              		@ frame_needed = 1, uses_anonymous_args = 0
  31 0000 80B5     		push	{r7, lr}
  32              		.cfi_def_cfa_offset 8
  33              		.cfi_offset 7, -8
  34              		.cfi_offset 14, -4
  35 0002 00AF     		add	r7, sp, #0
  36              		.cfi_def_cfa_register 7
  47:../Firmware/GD32F30x_standard_peripheral/Source/gd32f30x_bkp.c ****     /* reset BKP domain register*/
  48:../Firmware/GD32F30x_standard_peripheral/Source/gd32f30x_bkp.c ****     rcu_bkp_reset_enable();
  37              		.loc 1 48 5
  38 0004 FFF7FEFF 		bl	rcu_bkp_reset_enable
  49:../Firmware/GD32F30x_standard_peripheral/Source/gd32f30x_bkp.c ****     rcu_bkp_reset_disable();
  39              		.loc 1 49 5
  40 0008 FFF7FEFF 		bl	rcu_bkp_reset_disable
  50:../Firmware/GD32F30x_standard_peripheral/Source/gd32f30x_bkp.c **** }
  41              		.loc 1 50 1
  42 000c 00BF     		nop
  43 000e 80BD     		pop	{r7, pc}
  44              		.cfi_endproc
  45              	.LFE116:
  47              		.section	.text.bkp_write_data,"ax",%progbits
  48              		.align	1
  49              		.global	bkp_write_data
  50              		.syntax unified
  51              		.thumb
  52              		.thumb_func
  53              		.fpu softvfp
  55              	bkp_write_data:
  56              	.LFB117:
  51:../Firmware/GD32F30x_standard_peripheral/Source/gd32f30x_bkp.c **** 
  52:../Firmware/GD32F30x_standard_peripheral/Source/gd32f30x_bkp.c **** /*!
  53:../Firmware/GD32F30x_standard_peripheral/Source/gd32f30x_bkp.c ****     \brief      write BKP data register
  54:../Firmware/GD32F30x_standard_peripheral/Source/gd32f30x_bkp.c ****     \param[in]  register_number: refer to bkp_data_register_enum, only one parameter can be selecte
  55:../Firmware/GD32F30x_standard_peripheral/Source/gd32f30x_bkp.c ****       \arg        BKP_DATA_x(x = 0..41): bkp data register number x
  56:../Firmware/GD32F30x_standard_peripheral/Source/gd32f30x_bkp.c ****     \param[in]  data: the data to be write in BKP data register
  57:../Firmware/GD32F30x_standard_peripheral/Source/gd32f30x_bkp.c ****     \param[out] none
  58:../Firmware/GD32F30x_standard_peripheral/Source/gd32f30x_bkp.c ****     \retval     none
  59:../Firmware/GD32F30x_standard_peripheral/Source/gd32f30x_bkp.c **** */
  60:../Firmware/GD32F30x_standard_peripheral/Source/gd32f30x_bkp.c **** void bkp_write_data(bkp_data_register_enum register_number, uint16_t data)
  61:../Firmware/GD32F30x_standard_peripheral/Source/gd32f30x_bkp.c **** {
  57              		.loc 1 61 1
  58              		.cfi_startproc
  59              		@ args = 0, pretend = 0, frame = 8
  60              		@ frame_needed = 1, uses_anonymous_args = 0
  61              		@ link register save eliminated.
  62 0000 80B4     		push	{r7}
  63              		.cfi_def_cfa_offset 4
  64              		.cfi_offset 7, -4
  65 0002 83B0     		sub	sp, sp, #12
  66              		.cfi_def_cfa_offset 16
  67 0004 00AF     		add	r7, sp, #0
  68              		.cfi_def_cfa_register 7
  69 0006 0346     		mov	r3, r0
  70 0008 0A46     		mov	r2, r1
  71 000a FB71     		strb	r3, [r7, #7]
  72 000c 1346     		mov	r3, r2	@ movhi
  73 000e BB80     		strh	r3, [r7, #4]	@ movhi
  62:../Firmware/GD32F30x_standard_peripheral/Source/gd32f30x_bkp.c ****     if((register_number >= BKP_DATA_10) && (register_number <= BKP_DATA_41)){
  74              		.loc 1 62 7
  75 0010 FB79     		ldrb	r3, [r7, #7]	@ zero_extendqisi2
  76 0012 0A2B     		cmp	r3, #10
  77 0014 0AD9     		bls	.L3
  78              		.loc 1 62 41 discriminator 1
  79 0016 FB79     		ldrb	r3, [r7, #7]	@ zero_extendqisi2
  80 0018 2A2B     		cmp	r3, #42
  81 001a 07D8     		bhi	.L3
  63:../Firmware/GD32F30x_standard_peripheral/Source/gd32f30x_bkp.c ****         BKP_DATA10_41(register_number-1U) = data;
  82              		.loc 1 63 9
  83 001c FA79     		ldrb	r2, [r7, #7]	@ zero_extendqisi2
  84 001e 0D4B     		ldr	r3, .L6
  85 0020 1344     		add	r3, r3, r2
  86 0022 9B00     		lsls	r3, r3, #2
  87 0024 1A46     		mov	r2, r3
  88              		.loc 1 63 43
  89 0026 BB88     		ldrh	r3, [r7, #4]	@ movhi
  90 0028 1380     		strh	r3, [r2]	@ movhi
  64:../Firmware/GD32F30x_standard_peripheral/Source/gd32f30x_bkp.c ****     }else if((register_number >= BKP_DATA_0) && (register_number <= BKP_DATA_9)){
  65:../Firmware/GD32F30x_standard_peripheral/Source/gd32f30x_bkp.c ****         BKP_DATA0_9(register_number-1U) = data;
  66:../Firmware/GD32F30x_standard_peripheral/Source/gd32f30x_bkp.c ****     }else{
  67:../Firmware/GD32F30x_standard_peripheral/Source/gd32f30x_bkp.c ****         /* illegal parameters */
  68:../Firmware/GD32F30x_standard_peripheral/Source/gd32f30x_bkp.c ****     }
  69:../Firmware/GD32F30x_standard_peripheral/Source/gd32f30x_bkp.c **** }
  91              		.loc 1 69 1
  92 002a 0EE0     		b	.L5
  93              	.L3:
  64:../Firmware/GD32F30x_standard_peripheral/Source/gd32f30x_bkp.c ****     }else if((register_number >= BKP_DATA_0) && (register_number <= BKP_DATA_9)){
  94              		.loc 1 64 13
  95 002c FB79     		ldrb	r3, [r7, #7]	@ zero_extendqisi2
  96 002e 002B     		cmp	r3, #0
  97 0030 0BD0     		beq	.L5
  64:../Firmware/GD32F30x_standard_peripheral/Source/gd32f30x_bkp.c ****     }else if((register_number >= BKP_DATA_0) && (register_number <= BKP_DATA_9)){
  98              		.loc 1 64 46 discriminator 1
  99 0032 FB79     		ldrb	r3, [r7, #7]	@ zero_extendqisi2
 100 0034 0A2B     		cmp	r3, #10
 101 0036 08D8     		bhi	.L5
  65:../Firmware/GD32F30x_standard_peripheral/Source/gd32f30x_bkp.c ****     }else{
 102              		.loc 1 65 9
 103 0038 FB79     		ldrb	r3, [r7, #7]	@ zero_extendqisi2
 104 003a 03F18053 		add	r3, r3, #268435456
 105 003e 03F5D853 		add	r3, r3, #6912
 106 0042 9B00     		lsls	r3, r3, #2
 107 0044 1A46     		mov	r2, r3
  65:../Firmware/GD32F30x_standard_peripheral/Source/gd32f30x_bkp.c ****     }else{
 108              		.loc 1 65 41
 109 0046 BB88     		ldrh	r3, [r7, #4]	@ movhi
 110 0048 1380     		strh	r3, [r2]	@ movhi
 111              	.L5:
 112              		.loc 1 69 1
 113 004a 00BF     		nop
 114 004c 0C37     		adds	r7, r7, #12
 115              		.cfi_def_cfa_offset 4
 116 004e BD46     		mov	sp, r7
 117              		.cfi_def_cfa_register 13
 118              		@ sp needed
 119 0050 80BC     		pop	{r7}
 120              		.cfi_restore 7
 121              		.cfi_def_cfa_offset 0
 122 0052 7047     		bx	lr
 123              	.L7:
 124              		.align	2
 125              	.L6:
 126 0054 051B0010 		.word	268442373
 127              		.cfi_endproc
 128              	.LFE117:
 130              		.section	.text.bkp_read_data,"ax",%progbits
 131              		.align	1
 132              		.global	bkp_read_data
 133              		.syntax unified
 134              		.thumb
 135              		.thumb_func
 136              		.fpu softvfp
 138              	bkp_read_data:
 139              	.LFB118:
  70:../Firmware/GD32F30x_standard_peripheral/Source/gd32f30x_bkp.c **** 
  71:../Firmware/GD32F30x_standard_peripheral/Source/gd32f30x_bkp.c **** /*!
  72:../Firmware/GD32F30x_standard_peripheral/Source/gd32f30x_bkp.c ****     \brief      read BKP data register
  73:../Firmware/GD32F30x_standard_peripheral/Source/gd32f30x_bkp.c ****     \param[in]  register_number: refer to bkp_data_register_enum, only one parameter can be selecte
  74:../Firmware/GD32F30x_standard_peripheral/Source/gd32f30x_bkp.c ****       \arg        BKP_DATA_x(x = 0..41): bkp data register number x
  75:../Firmware/GD32F30x_standard_peripheral/Source/gd32f30x_bkp.c ****     \param[out] none
  76:../Firmware/GD32F30x_standard_peripheral/Source/gd32f30x_bkp.c ****     \retval     data of BKP data register
  77:../Firmware/GD32F30x_standard_peripheral/Source/gd32f30x_bkp.c **** */
  78:../Firmware/GD32F30x_standard_peripheral/Source/gd32f30x_bkp.c **** uint16_t bkp_read_data(bkp_data_register_enum register_number)
  79:../Firmware/GD32F30x_standard_peripheral/Source/gd32f30x_bkp.c **** {
 140              		.loc 1 79 1
 141              		.cfi_startproc
 142              		@ args = 0, pretend = 0, frame = 16
 143              		@ frame_needed = 1, uses_anonymous_args = 0
 144              		@ link register save eliminated.
 145 0000 80B4     		push	{r7}
 146              		.cfi_def_cfa_offset 4
 147              		.cfi_offset 7, -4
 148 0002 85B0     		sub	sp, sp, #20
 149              		.cfi_def_cfa_offset 24
 150 0004 00AF     		add	r7, sp, #0
 151              		.cfi_def_cfa_register 7
 152 0006 0346     		mov	r3, r0
 153 0008 FB71     		strb	r3, [r7, #7]
  80:../Firmware/GD32F30x_standard_peripheral/Source/gd32f30x_bkp.c ****     uint16_t data = 0U;
 154              		.loc 1 80 14
 155 000a 0023     		movs	r3, #0
 156 000c FB81     		strh	r3, [r7, #14]	@ movhi
  81:../Firmware/GD32F30x_standard_peripheral/Source/gd32f30x_bkp.c ****     
  82:../Firmware/GD32F30x_standard_peripheral/Source/gd32f30x_bkp.c ****     /* get the data from the BKP data register */
  83:../Firmware/GD32F30x_standard_peripheral/Source/gd32f30x_bkp.c ****     if((register_number >= BKP_DATA_10) && (register_number <= BKP_DATA_41)){
 157              		.loc 1 83 7
 158 000e FB79     		ldrb	r3, [r7, #7]	@ zero_extendqisi2
 159 0010 0A2B     		cmp	r3, #10
 160 0012 09D9     		bls	.L9
 161              		.loc 1 83 41 discriminator 1
 162 0014 FB79     		ldrb	r3, [r7, #7]	@ zero_extendqisi2
 163 0016 2A2B     		cmp	r3, #42
 164 0018 06D8     		bhi	.L9
  84:../Firmware/GD32F30x_standard_peripheral/Source/gd32f30x_bkp.c ****         data = BKP_DATA10_41(register_number-1U);
 165              		.loc 1 84 16
 166 001a FA79     		ldrb	r2, [r7, #7]	@ zero_extendqisi2
 167 001c 0C4B     		ldr	r3, .L12
 168 001e 1344     		add	r3, r3, r2
 169 0020 9B00     		lsls	r3, r3, #2
 170              		.loc 1 84 14
 171 0022 1B88     		ldrh	r3, [r3]	@ movhi
 172 0024 FB81     		strh	r3, [r7, #14]	@ movhi
 173 0026 0DE0     		b	.L10
 174              	.L9:
  85:../Firmware/GD32F30x_standard_peripheral/Source/gd32f30x_bkp.c ****     }else if((register_number >= BKP_DATA_0) && (register_number <= BKP_DATA_9)){
 175              		.loc 1 85 13
 176 0028 FB79     		ldrb	r3, [r7, #7]	@ zero_extendqisi2
 177 002a 002B     		cmp	r3, #0
 178 002c 0AD0     		beq	.L10
 179              		.loc 1 85 46 discriminator 1
 180 002e FB79     		ldrb	r3, [r7, #7]	@ zero_extendqisi2
 181 0030 0A2B     		cmp	r3, #10
 182 0032 07D8     		bhi	.L10
  86:../Firmware/GD32F30x_standard_peripheral/Source/gd32f30x_bkp.c ****         data = BKP_DATA0_9(register_number-1U);
 183              		.loc 1 86 16
 184 0034 FB79     		ldrb	r3, [r7, #7]	@ zero_extendqisi2
 185 0036 03F18053 		add	r3, r3, #268435456
 186 003a 03F5D853 		add	r3, r3, #6912
 187 003e 9B00     		lsls	r3, r3, #2
 188              		.loc 1 86 14
 189 0040 1B88     		ldrh	r3, [r3]	@ movhi
 190 0042 FB81     		strh	r3, [r7, #14]	@ movhi
 191              	.L10:
  87:../Firmware/GD32F30x_standard_peripheral/Source/gd32f30x_bkp.c ****     }else{
  88:../Firmware/GD32F30x_standard_peripheral/Source/gd32f30x_bkp.c ****         /* illegal parameters */
  89:../Firmware/GD32F30x_standard_peripheral/Source/gd32f30x_bkp.c ****     }
  90:../Firmware/GD32F30x_standard_peripheral/Source/gd32f30x_bkp.c ****     return data;
 192              		.loc 1 90 12
 193 0044 FB89     		ldrh	r3, [r7, #14]
  91:../Firmware/GD32F30x_standard_peripheral/Source/gd32f30x_bkp.c **** }
 194              		.loc 1 91 1
 195 0046 1846     		mov	r0, r3
 196 0048 1437     		adds	r7, r7, #20
 197              		.cfi_def_cfa_offset 4
 198 004a BD46     		mov	sp, r7
 199              		.cfi_def_cfa_register 13
 200              		@ sp needed
 201 004c 80BC     		pop	{r7}
 202              		.cfi_restore 7
 203              		.cfi_def_cfa_offset 0
 204 004e 7047     		bx	lr
 205              	.L13:
 206              		.align	2
 207              	.L12:
 208 0050 051B0010 		.word	268442373
 209              		.cfi_endproc
 210              	.LFE118:
 212              		.section	.text.bkp_rtc_calibration_output_enable,"ax",%progbits
 213              		.align	1
 214              		.global	bkp_rtc_calibration_output_enable
 215              		.syntax unified
 216              		.thumb
 217              		.thumb_func
 218              		.fpu softvfp
 220              	bkp_rtc_calibration_output_enable:
 221              	.LFB119:
  92:../Firmware/GD32F30x_standard_peripheral/Source/gd32f30x_bkp.c **** 
  93:../Firmware/GD32F30x_standard_peripheral/Source/gd32f30x_bkp.c **** /*!
  94:../Firmware/GD32F30x_standard_peripheral/Source/gd32f30x_bkp.c ****     \brief      enable RTC clock calibration output
  95:../Firmware/GD32F30x_standard_peripheral/Source/gd32f30x_bkp.c ****     \param[in]  none
  96:../Firmware/GD32F30x_standard_peripheral/Source/gd32f30x_bkp.c ****     \param[out] none
  97:../Firmware/GD32F30x_standard_peripheral/Source/gd32f30x_bkp.c ****     \retval     none
  98:../Firmware/GD32F30x_standard_peripheral/Source/gd32f30x_bkp.c **** */
  99:../Firmware/GD32F30x_standard_peripheral/Source/gd32f30x_bkp.c **** void bkp_rtc_calibration_output_enable(void)
 100:../Firmware/GD32F30x_standard_peripheral/Source/gd32f30x_bkp.c **** {
 222              		.loc 1 100 1
 223              		.cfi_startproc
 224              		@ args = 0, pretend = 0, frame = 0
 225              		@ frame_needed = 1, uses_anonymous_args = 0
 226              		@ link register save eliminated.
 227 0000 80B4     		push	{r7}
 228              		.cfi_def_cfa_offset 4
 229              		.cfi_offset 7, -4
 230 0002 00AF     		add	r7, sp, #0
 231              		.cfi_def_cfa_register 7
 101:../Firmware/GD32F30x_standard_peripheral/Source/gd32f30x_bkp.c ****     BKP_OCTL |= (uint16_t)BKP_OCTL_COEN;
 232              		.loc 1 101 14
 233 0004 054B     		ldr	r3, .L15
 234 0006 1B88     		ldrh	r3, [r3]	@ movhi
 235 0008 9BB2     		uxth	r3, r3
 236 000a 044A     		ldr	r2, .L15
 237 000c 43F08003 		orr	r3, r3, #128
 238 0010 9BB2     		uxth	r3, r3
 239 0012 1380     		strh	r3, [r2]	@ movhi
 102:../Firmware/GD32F30x_standard_peripheral/Source/gd32f30x_bkp.c **** }
 240              		.loc 1 102 1
 241 0014 00BF     		nop
 242 0016 BD46     		mov	sp, r7
 243              		.cfi_def_cfa_register 13
 244              		@ sp needed
 245 0018 80BC     		pop	{r7}
 246              		.cfi_restore 7
 247              		.cfi_def_cfa_offset 0
 248 001a 7047     		bx	lr
 249              	.L16:
 250              		.align	2
 251              	.L15:
 252 001c 2C6C0040 		.word	1073769516
 253              		.cfi_endproc
 254              	.LFE119:
 256              		.section	.text.bkp_rtc_calibration_output_disable,"ax",%progbits
 257              		.align	1
 258              		.global	bkp_rtc_calibration_output_disable
 259              		.syntax unified
 260              		.thumb
 261              		.thumb_func
 262              		.fpu softvfp
 264              	bkp_rtc_calibration_output_disable:
 265              	.LFB120:
 103:../Firmware/GD32F30x_standard_peripheral/Source/gd32f30x_bkp.c **** 
 104:../Firmware/GD32F30x_standard_peripheral/Source/gd32f30x_bkp.c **** /*!
 105:../Firmware/GD32F30x_standard_peripheral/Source/gd32f30x_bkp.c ****     \brief      disable RTC clock calibration output
 106:../Firmware/GD32F30x_standard_peripheral/Source/gd32f30x_bkp.c ****     \param[in]  none
 107:../Firmware/GD32F30x_standard_peripheral/Source/gd32f30x_bkp.c ****     \param[out] none
 108:../Firmware/GD32F30x_standard_peripheral/Source/gd32f30x_bkp.c ****     \retval     none
 109:../Firmware/GD32F30x_standard_peripheral/Source/gd32f30x_bkp.c **** */
 110:../Firmware/GD32F30x_standard_peripheral/Source/gd32f30x_bkp.c **** void bkp_rtc_calibration_output_disable(void)
 111:../Firmware/GD32F30x_standard_peripheral/Source/gd32f30x_bkp.c **** {
 266              		.loc 1 111 1
 267              		.cfi_startproc
 268              		@ args = 0, pretend = 0, frame = 0
 269              		@ frame_needed = 1, uses_anonymous_args = 0
 270              		@ link register save eliminated.
 271 0000 80B4     		push	{r7}
 272              		.cfi_def_cfa_offset 4
 273              		.cfi_offset 7, -4
 274 0002 00AF     		add	r7, sp, #0
 275              		.cfi_def_cfa_register 7
 112:../Firmware/GD32F30x_standard_peripheral/Source/gd32f30x_bkp.c ****     BKP_OCTL &= (uint16_t)~BKP_OCTL_COEN;
 276              		.loc 1 112 14
 277 0004 054B     		ldr	r3, .L18
 278 0006 1B88     		ldrh	r3, [r3]	@ movhi
 279 0008 9BB2     		uxth	r3, r3
 280 000a 044A     		ldr	r2, .L18
 281 000c 23F08003 		bic	r3, r3, #128
 282 0010 9BB2     		uxth	r3, r3
 283 0012 1380     		strh	r3, [r2]	@ movhi
 113:../Firmware/GD32F30x_standard_peripheral/Source/gd32f30x_bkp.c **** }
 284              		.loc 1 113 1
 285 0014 00BF     		nop
 286 0016 BD46     		mov	sp, r7
 287              		.cfi_def_cfa_register 13
 288              		@ sp needed
 289 0018 80BC     		pop	{r7}
 290              		.cfi_restore 7
 291              		.cfi_def_cfa_offset 0
 292 001a 7047     		bx	lr
 293              	.L19:
 294              		.align	2
 295              	.L18:
 296 001c 2C6C0040 		.word	1073769516
 297              		.cfi_endproc
 298              	.LFE120:
 300              		.section	.text.bkp_rtc_signal_output_enable,"ax",%progbits
 301              		.align	1
 302              		.global	bkp_rtc_signal_output_enable
 303              		.syntax unified
 304              		.thumb
 305              		.thumb_func
 306              		.fpu softvfp
 308              	bkp_rtc_signal_output_enable:
 309              	.LFB121:
 114:../Firmware/GD32F30x_standard_peripheral/Source/gd32f30x_bkp.c **** 
 115:../Firmware/GD32F30x_standard_peripheral/Source/gd32f30x_bkp.c **** /*!
 116:../Firmware/GD32F30x_standard_peripheral/Source/gd32f30x_bkp.c ****     \brief      enable RTC alarm or second signal output
 117:../Firmware/GD32F30x_standard_peripheral/Source/gd32f30x_bkp.c ****     \param[in]  none
 118:../Firmware/GD32F30x_standard_peripheral/Source/gd32f30x_bkp.c ****     \param[out] none
 119:../Firmware/GD32F30x_standard_peripheral/Source/gd32f30x_bkp.c ****     \retval     none
 120:../Firmware/GD32F30x_standard_peripheral/Source/gd32f30x_bkp.c **** */
 121:../Firmware/GD32F30x_standard_peripheral/Source/gd32f30x_bkp.c **** void bkp_rtc_signal_output_enable(void)
 122:../Firmware/GD32F30x_standard_peripheral/Source/gd32f30x_bkp.c **** {
 310              		.loc 1 122 1
 311              		.cfi_startproc
 312              		@ args = 0, pretend = 0, frame = 0
 313              		@ frame_needed = 1, uses_anonymous_args = 0
 314              		@ link register save eliminated.
 315 0000 80B4     		push	{r7}
 316              		.cfi_def_cfa_offset 4
 317              		.cfi_offset 7, -4
 318 0002 00AF     		add	r7, sp, #0
 319              		.cfi_def_cfa_register 7
 123:../Firmware/GD32F30x_standard_peripheral/Source/gd32f30x_bkp.c ****     BKP_OCTL |= (uint16_t)BKP_OCTL_ASOEN;
 320              		.loc 1 123 14
 321 0004 054B     		ldr	r3, .L21
 322 0006 1B88     		ldrh	r3, [r3]	@ movhi
 323 0008 9BB2     		uxth	r3, r3
 324 000a 044A     		ldr	r2, .L21
 325 000c 43F48073 		orr	r3, r3, #256
 326 0010 9BB2     		uxth	r3, r3
 327 0012 1380     		strh	r3, [r2]	@ movhi
 124:../Firmware/GD32F30x_standard_peripheral/Source/gd32f30x_bkp.c **** }
 328              		.loc 1 124 1
 329 0014 00BF     		nop
 330 0016 BD46     		mov	sp, r7
 331              		.cfi_def_cfa_register 13
 332              		@ sp needed
 333 0018 80BC     		pop	{r7}
 334              		.cfi_restore 7
 335              		.cfi_def_cfa_offset 0
 336 001a 7047     		bx	lr
 337              	.L22:
 338              		.align	2
 339              	.L21:
 340 001c 2C6C0040 		.word	1073769516
 341              		.cfi_endproc
 342              	.LFE121:
 344              		.section	.text.bkp_rtc_signal_output_disable,"ax",%progbits
 345              		.align	1
 346              		.global	bkp_rtc_signal_output_disable
 347              		.syntax unified
 348              		.thumb
 349              		.thumb_func
 350              		.fpu softvfp
 352              	bkp_rtc_signal_output_disable:
 353              	.LFB122:
 125:../Firmware/GD32F30x_standard_peripheral/Source/gd32f30x_bkp.c **** 
 126:../Firmware/GD32F30x_standard_peripheral/Source/gd32f30x_bkp.c **** /*!
 127:../Firmware/GD32F30x_standard_peripheral/Source/gd32f30x_bkp.c ****     \brief      disable RTC alarm or second signal output
 128:../Firmware/GD32F30x_standard_peripheral/Source/gd32f30x_bkp.c ****     \param[in]  none
 129:../Firmware/GD32F30x_standard_peripheral/Source/gd32f30x_bkp.c ****     \param[out] none
 130:../Firmware/GD32F30x_standard_peripheral/Source/gd32f30x_bkp.c ****     \retval     none
 131:../Firmware/GD32F30x_standard_peripheral/Source/gd32f30x_bkp.c **** */
 132:../Firmware/GD32F30x_standard_peripheral/Source/gd32f30x_bkp.c **** void bkp_rtc_signal_output_disable(void)
 133:../Firmware/GD32F30x_standard_peripheral/Source/gd32f30x_bkp.c **** {
 354              		.loc 1 133 1
 355              		.cfi_startproc
 356              		@ args = 0, pretend = 0, frame = 0
 357              		@ frame_needed = 1, uses_anonymous_args = 0
 358              		@ link register save eliminated.
 359 0000 80B4     		push	{r7}
 360              		.cfi_def_cfa_offset 4
 361              		.cfi_offset 7, -4
 362 0002 00AF     		add	r7, sp, #0
 363              		.cfi_def_cfa_register 7
 134:../Firmware/GD32F30x_standard_peripheral/Source/gd32f30x_bkp.c ****     BKP_OCTL &= (uint16_t)~BKP_OCTL_ASOEN;
 364              		.loc 1 134 14
 365 0004 054B     		ldr	r3, .L24
 366 0006 1B88     		ldrh	r3, [r3]	@ movhi
 367 0008 9BB2     		uxth	r3, r3
 368 000a 044A     		ldr	r2, .L24
 369 000c 23F48073 		bic	r3, r3, #256
 370 0010 9BB2     		uxth	r3, r3
 371 0012 1380     		strh	r3, [r2]	@ movhi
 135:../Firmware/GD32F30x_standard_peripheral/Source/gd32f30x_bkp.c **** }
 372              		.loc 1 135 1
 373 0014 00BF     		nop
 374 0016 BD46     		mov	sp, r7
 375              		.cfi_def_cfa_register 13
 376              		@ sp needed
 377 0018 80BC     		pop	{r7}
 378              		.cfi_restore 7
 379              		.cfi_def_cfa_offset 0
 380 001a 7047     		bx	lr
 381              	.L25:
 382              		.align	2
 383              	.L24:
 384 001c 2C6C0040 		.word	1073769516
 385              		.cfi_endproc
 386              	.LFE122:
 388              		.section	.text.bkp_rtc_output_select,"ax",%progbits
 389              		.align	1
 390              		.global	bkp_rtc_output_select
 391              		.syntax unified
 392              		.thumb
 393              		.thumb_func
 394              		.fpu softvfp
 396              	bkp_rtc_output_select:
 397              	.LFB123:
 136:../Firmware/GD32F30x_standard_peripheral/Source/gd32f30x_bkp.c **** 
 137:../Firmware/GD32F30x_standard_peripheral/Source/gd32f30x_bkp.c **** /*!
 138:../Firmware/GD32F30x_standard_peripheral/Source/gd32f30x_bkp.c ****     \brief      select RTC output
 139:../Firmware/GD32F30x_standard_peripheral/Source/gd32f30x_bkp.c ****     \param[in]  outputsel: RTC output selection
 140:../Firmware/GD32F30x_standard_peripheral/Source/gd32f30x_bkp.c ****       \arg        RTC_OUTPUT_ALARM_PULSE: RTC alarm pulse is selected as the RTC output
 141:../Firmware/GD32F30x_standard_peripheral/Source/gd32f30x_bkp.c ****       \arg        RTC_OUTPUT_SECOND_PULSE: RTC second pulse is selected as the RTC output
 142:../Firmware/GD32F30x_standard_peripheral/Source/gd32f30x_bkp.c ****     \param[out] none
 143:../Firmware/GD32F30x_standard_peripheral/Source/gd32f30x_bkp.c ****     \retval     none
 144:../Firmware/GD32F30x_standard_peripheral/Source/gd32f30x_bkp.c **** */
 145:../Firmware/GD32F30x_standard_peripheral/Source/gd32f30x_bkp.c **** void bkp_rtc_output_select(uint16_t outputsel)
 146:../Firmware/GD32F30x_standard_peripheral/Source/gd32f30x_bkp.c **** {
 398              		.loc 1 146 1
 399              		.cfi_startproc
 400              		@ args = 0, pretend = 0, frame = 16
 401              		@ frame_needed = 1, uses_anonymous_args = 0
 402              		@ link register save eliminated.
 403 0000 80B4     		push	{r7}
 404              		.cfi_def_cfa_offset 4
 405              		.cfi_offset 7, -4
 406 0002 85B0     		sub	sp, sp, #20
 407              		.cfi_def_cfa_offset 24
 408 0004 00AF     		add	r7, sp, #0
 409              		.cfi_def_cfa_register 7
 410 0006 0346     		mov	r3, r0
 411 0008 FB80     		strh	r3, [r7, #6]	@ movhi
 147:../Firmware/GD32F30x_standard_peripheral/Source/gd32f30x_bkp.c ****     uint16_t ctl = 0U;
 412              		.loc 1 147 14
 413 000a 0023     		movs	r3, #0
 414 000c FB81     		strh	r3, [r7, #14]	@ movhi
 148:../Firmware/GD32F30x_standard_peripheral/Source/gd32f30x_bkp.c ****     
 149:../Firmware/GD32F30x_standard_peripheral/Source/gd32f30x_bkp.c ****     ctl = BKP_OCTL;
 415              		.loc 1 149 11
 416 000e 094B     		ldr	r3, .L27
 417              		.loc 1 149 9
 418 0010 1B88     		ldrh	r3, [r3]	@ movhi
 419 0012 FB81     		strh	r3, [r7, #14]	@ movhi
 150:../Firmware/GD32F30x_standard_peripheral/Source/gd32f30x_bkp.c ****     ctl &= (uint16_t)~BKP_OCTL_ROSEL;
 420              		.loc 1 150 9
 421 0014 FB89     		ldrh	r3, [r7, #14]	@ movhi
 422 0016 23F40073 		bic	r3, r3, #512
 423 001a FB81     		strh	r3, [r7, #14]	@ movhi
 151:../Firmware/GD32F30x_standard_peripheral/Source/gd32f30x_bkp.c ****     ctl |= outputsel;
 424              		.loc 1 151 9
 425 001c FA89     		ldrh	r2, [r7, #14]	@ movhi
 426 001e FB88     		ldrh	r3, [r7, #6]	@ movhi
 427 0020 1343     		orrs	r3, r3, r2
 428 0022 FB81     		strh	r3, [r7, #14]	@ movhi
 152:../Firmware/GD32F30x_standard_peripheral/Source/gd32f30x_bkp.c ****     BKP_OCTL = ctl;
 429              		.loc 1 152 5
 430 0024 034A     		ldr	r2, .L27
 431              		.loc 1 152 14
 432 0026 FB89     		ldrh	r3, [r7, #14]	@ movhi
 433 0028 1380     		strh	r3, [r2]	@ movhi
 153:../Firmware/GD32F30x_standard_peripheral/Source/gd32f30x_bkp.c **** }
 434              		.loc 1 153 1
 435 002a 00BF     		nop
 436 002c 1437     		adds	r7, r7, #20
 437              		.cfi_def_cfa_offset 4
 438 002e BD46     		mov	sp, r7
 439              		.cfi_def_cfa_register 13
 440              		@ sp needed
 441 0030 80BC     		pop	{r7}
 442              		.cfi_restore 7
 443              		.cfi_def_cfa_offset 0
 444 0032 7047     		bx	lr
 445              	.L28:
 446              		.align	2
 447              	.L27:
 448 0034 2C6C0040 		.word	1073769516
 449              		.cfi_endproc
 450              	.LFE123:
 452              		.section	.text.bkp_rtc_clock_output_select,"ax",%progbits
 453              		.align	1
 454              		.global	bkp_rtc_clock_output_select
 455              		.syntax unified
 456              		.thumb
 457              		.thumb_func
 458              		.fpu softvfp
 460              	bkp_rtc_clock_output_select:
 461              	.LFB124:
 154:../Firmware/GD32F30x_standard_peripheral/Source/gd32f30x_bkp.c **** 
 155:../Firmware/GD32F30x_standard_peripheral/Source/gd32f30x_bkp.c **** /*!
 156:../Firmware/GD32F30x_standard_peripheral/Source/gd32f30x_bkp.c ****     \brief      select RTC clock output
 157:../Firmware/GD32F30x_standard_peripheral/Source/gd32f30x_bkp.c ****     \param[in]  clocksel: RTC clock output selection
 158:../Firmware/GD32F30x_standard_peripheral/Source/gd32f30x_bkp.c ****       \arg        RTC_CLOCK_DIV_64: RTC clock div 64
 159:../Firmware/GD32F30x_standard_peripheral/Source/gd32f30x_bkp.c ****       \arg        RTC_CLOCK_DIV_1: RTC clock
 160:../Firmware/GD32F30x_standard_peripheral/Source/gd32f30x_bkp.c ****     \param[out] none
 161:../Firmware/GD32F30x_standard_peripheral/Source/gd32f30x_bkp.c ****     \retval     none
 162:../Firmware/GD32F30x_standard_peripheral/Source/gd32f30x_bkp.c **** */
 163:../Firmware/GD32F30x_standard_peripheral/Source/gd32f30x_bkp.c **** void bkp_rtc_clock_output_select(uint16_t clocksel)
 164:../Firmware/GD32F30x_standard_peripheral/Source/gd32f30x_bkp.c **** {
 462              		.loc 1 164 1
 463              		.cfi_startproc
 464              		@ args = 0, pretend = 0, frame = 16
 465              		@ frame_needed = 1, uses_anonymous_args = 0
 466              		@ link register save eliminated.
 467 0000 80B4     		push	{r7}
 468              		.cfi_def_cfa_offset 4
 469              		.cfi_offset 7, -4
 470 0002 85B0     		sub	sp, sp, #20
 471              		.cfi_def_cfa_offset 24
 472 0004 00AF     		add	r7, sp, #0
 473              		.cfi_def_cfa_register 7
 474 0006 0346     		mov	r3, r0
 475 0008 FB80     		strh	r3, [r7, #6]	@ movhi
 165:../Firmware/GD32F30x_standard_peripheral/Source/gd32f30x_bkp.c ****     uint16_t ctl = 0U;
 476              		.loc 1 165 14
 477 000a 0023     		movs	r3, #0
 478 000c FB81     		strh	r3, [r7, #14]	@ movhi
 166:../Firmware/GD32F30x_standard_peripheral/Source/gd32f30x_bkp.c ****     
 167:../Firmware/GD32F30x_standard_peripheral/Source/gd32f30x_bkp.c ****     ctl = BKP_OCTL;
 479              		.loc 1 167 11
 480 000e 094B     		ldr	r3, .L30
 481              		.loc 1 167 9
 482 0010 1B88     		ldrh	r3, [r3]	@ movhi
 483 0012 FB81     		strh	r3, [r7, #14]	@ movhi
 168:../Firmware/GD32F30x_standard_peripheral/Source/gd32f30x_bkp.c ****     ctl &= (uint16_t)~BKP_OCTL_CCOSEL;
 484              		.loc 1 168 9
 485 0014 FB89     		ldrh	r3, [r7, #14]	@ movhi
 486 0016 23F48043 		bic	r3, r3, #16384
 487 001a FB81     		strh	r3, [r7, #14]	@ movhi
 169:../Firmware/GD32F30x_standard_peripheral/Source/gd32f30x_bkp.c ****     ctl |= clocksel;
 488              		.loc 1 169 9
 489 001c FA89     		ldrh	r2, [r7, #14]	@ movhi
 490 001e FB88     		ldrh	r3, [r7, #6]	@ movhi
 491 0020 1343     		orrs	r3, r3, r2
 492 0022 FB81     		strh	r3, [r7, #14]	@ movhi
 170:../Firmware/GD32F30x_standard_peripheral/Source/gd32f30x_bkp.c ****     BKP_OCTL = ctl;
 493              		.loc 1 170 5
 494 0024 034A     		ldr	r2, .L30
 495              		.loc 1 170 14
 496 0026 FB89     		ldrh	r3, [r7, #14]	@ movhi
 497 0028 1380     		strh	r3, [r2]	@ movhi
 171:../Firmware/GD32F30x_standard_peripheral/Source/gd32f30x_bkp.c **** }
 498              		.loc 1 171 1
 499 002a 00BF     		nop
 500 002c 1437     		adds	r7, r7, #20
 501              		.cfi_def_cfa_offset 4
 502 002e BD46     		mov	sp, r7
 503              		.cfi_def_cfa_register 13
 504              		@ sp needed
 505 0030 80BC     		pop	{r7}
 506              		.cfi_restore 7
 507              		.cfi_def_cfa_offset 0
 508 0032 7047     		bx	lr
 509              	.L31:
 510              		.align	2
 511              	.L30:
 512 0034 2C6C0040 		.word	1073769516
 513              		.cfi_endproc
 514              	.LFE124:
 516              		.section	.text.bkp_rtc_clock_calibration_direction,"ax",%progbits
 517              		.align	1
 518              		.global	bkp_rtc_clock_calibration_direction
 519              		.syntax unified
 520              		.thumb
 521              		.thumb_func
 522              		.fpu softvfp
 524              	bkp_rtc_clock_calibration_direction:
 525              	.LFB125:
 172:../Firmware/GD32F30x_standard_peripheral/Source/gd32f30x_bkp.c **** 
 173:../Firmware/GD32F30x_standard_peripheral/Source/gd32f30x_bkp.c **** /*!
 174:../Firmware/GD32F30x_standard_peripheral/Source/gd32f30x_bkp.c ****     \brief      RTC clock calibration direction
 175:../Firmware/GD32F30x_standard_peripheral/Source/gd32f30x_bkp.c ****     \param[in]  direction: RTC clock calibration direction
 176:../Firmware/GD32F30x_standard_peripheral/Source/gd32f30x_bkp.c ****       \arg        RTC_CLOCK_SLOWED_DOWN: RTC clock slow down
 177:../Firmware/GD32F30x_standard_peripheral/Source/gd32f30x_bkp.c ****       \arg        RTC_CLOCK_SPEED_UP: RTC clock speed up
 178:../Firmware/GD32F30x_standard_peripheral/Source/gd32f30x_bkp.c ****     \param[out] none
 179:../Firmware/GD32F30x_standard_peripheral/Source/gd32f30x_bkp.c ****     \retval     none
 180:../Firmware/GD32F30x_standard_peripheral/Source/gd32f30x_bkp.c **** */
 181:../Firmware/GD32F30x_standard_peripheral/Source/gd32f30x_bkp.c **** void bkp_rtc_clock_calibration_direction(uint16_t direction)
 182:../Firmware/GD32F30x_standard_peripheral/Source/gd32f30x_bkp.c **** {
 526              		.loc 1 182 1
 527              		.cfi_startproc
 528              		@ args = 0, pretend = 0, frame = 16
 529              		@ frame_needed = 1, uses_anonymous_args = 0
 530              		@ link register save eliminated.
 531 0000 80B4     		push	{r7}
 532              		.cfi_def_cfa_offset 4
 533              		.cfi_offset 7, -4
 534 0002 85B0     		sub	sp, sp, #20
 535              		.cfi_def_cfa_offset 24
 536 0004 00AF     		add	r7, sp, #0
 537              		.cfi_def_cfa_register 7
 538 0006 0346     		mov	r3, r0
 539 0008 FB80     		strh	r3, [r7, #6]	@ movhi
 183:../Firmware/GD32F30x_standard_peripheral/Source/gd32f30x_bkp.c ****     uint16_t ctl = 0U;
 540              		.loc 1 183 14
 541 000a 0023     		movs	r3, #0
 542 000c FB81     		strh	r3, [r7, #14]	@ movhi
 184:../Firmware/GD32F30x_standard_peripheral/Source/gd32f30x_bkp.c ****     
 185:../Firmware/GD32F30x_standard_peripheral/Source/gd32f30x_bkp.c ****     ctl = BKP_OCTL;
 543              		.loc 1 185 11
 544 000e 094B     		ldr	r3, .L33
 545              		.loc 1 185 9
 546 0010 1B88     		ldrh	r3, [r3]	@ movhi
 547 0012 FB81     		strh	r3, [r7, #14]	@ movhi
 186:../Firmware/GD32F30x_standard_peripheral/Source/gd32f30x_bkp.c ****     ctl &= (uint16_t)~BKP_OCTL_CALDIR;
 548              		.loc 1 186 9
 549 0014 FB89     		ldrh	r3, [r7, #14]	@ movhi
 550 0016 C3F30E03 		ubfx	r3, r3, #0, #15
 551 001a FB81     		strh	r3, [r7, #14]	@ movhi
 187:../Firmware/GD32F30x_standard_peripheral/Source/gd32f30x_bkp.c ****     ctl |= direction;
 552              		.loc 1 187 9
 553 001c FA89     		ldrh	r2, [r7, #14]	@ movhi
 554 001e FB88     		ldrh	r3, [r7, #6]	@ movhi
 555 0020 1343     		orrs	r3, r3, r2
 556 0022 FB81     		strh	r3, [r7, #14]	@ movhi
 188:../Firmware/GD32F30x_standard_peripheral/Source/gd32f30x_bkp.c ****     BKP_OCTL = ctl;
 557              		.loc 1 188 5
 558 0024 034A     		ldr	r2, .L33
 559              		.loc 1 188 14
 560 0026 FB89     		ldrh	r3, [r7, #14]	@ movhi
 561 0028 1380     		strh	r3, [r2]	@ movhi
 189:../Firmware/GD32F30x_standard_peripheral/Source/gd32f30x_bkp.c **** }
 562              		.loc 1 189 1
 563 002a 00BF     		nop
 564 002c 1437     		adds	r7, r7, #20
 565              		.cfi_def_cfa_offset 4
 566 002e BD46     		mov	sp, r7
 567              		.cfi_def_cfa_register 13
 568              		@ sp needed
 569 0030 80BC     		pop	{r7}
 570              		.cfi_restore 7
 571              		.cfi_def_cfa_offset 0
 572 0032 7047     		bx	lr
 573              	.L34:
 574              		.align	2
 575              	.L33:
 576 0034 2C6C0040 		.word	1073769516
 577              		.cfi_endproc
 578              	.LFE125:
 580              		.section	.text.bkp_rtc_calibration_value_set,"ax",%progbits
 581              		.align	1
 582              		.global	bkp_rtc_calibration_value_set
 583              		.syntax unified
 584              		.thumb
 585              		.thumb_func
 586              		.fpu softvfp
 588              	bkp_rtc_calibration_value_set:
 589              	.LFB126:
 190:../Firmware/GD32F30x_standard_peripheral/Source/gd32f30x_bkp.c **** 
 191:../Firmware/GD32F30x_standard_peripheral/Source/gd32f30x_bkp.c **** /*!
 192:../Firmware/GD32F30x_standard_peripheral/Source/gd32f30x_bkp.c ****     \brief      set RTC clock calibration value 
 193:../Firmware/GD32F30x_standard_peripheral/Source/gd32f30x_bkp.c ****     \param[in]  value: RTC clock calibration value
 194:../Firmware/GD32F30x_standard_peripheral/Source/gd32f30x_bkp.c ****       \arg        0x00 - 0x7F
 195:../Firmware/GD32F30x_standard_peripheral/Source/gd32f30x_bkp.c ****     \param[out] none
 196:../Firmware/GD32F30x_standard_peripheral/Source/gd32f30x_bkp.c ****     \retval     none
 197:../Firmware/GD32F30x_standard_peripheral/Source/gd32f30x_bkp.c **** */
 198:../Firmware/GD32F30x_standard_peripheral/Source/gd32f30x_bkp.c **** void bkp_rtc_calibration_value_set(uint8_t value)
 199:../Firmware/GD32F30x_standard_peripheral/Source/gd32f30x_bkp.c **** {
 590              		.loc 1 199 1
 591              		.cfi_startproc
 592              		@ args = 0, pretend = 0, frame = 16
 593              		@ frame_needed = 1, uses_anonymous_args = 0
 594              		@ link register save eliminated.
 595 0000 80B4     		push	{r7}
 596              		.cfi_def_cfa_offset 4
 597              		.cfi_offset 7, -4
 598 0002 85B0     		sub	sp, sp, #20
 599              		.cfi_def_cfa_offset 24
 600 0004 00AF     		add	r7, sp, #0
 601              		.cfi_def_cfa_register 7
 602 0006 0346     		mov	r3, r0
 603 0008 FB71     		strb	r3, [r7, #7]
 200:../Firmware/GD32F30x_standard_peripheral/Source/gd32f30x_bkp.c ****     uint16_t ctl;
 201:../Firmware/GD32F30x_standard_peripheral/Source/gd32f30x_bkp.c ****     
 202:../Firmware/GD32F30x_standard_peripheral/Source/gd32f30x_bkp.c ****     ctl = BKP_OCTL;
 604              		.loc 1 202 11
 605 000a 0C4B     		ldr	r3, .L36
 606              		.loc 1 202 9
 607 000c 1B88     		ldrh	r3, [r3]	@ movhi
 608 000e FB81     		strh	r3, [r7, #14]	@ movhi
 203:../Firmware/GD32F30x_standard_peripheral/Source/gd32f30x_bkp.c ****     ctl &= ~(uint16_t)BKP_OCTL_RCCV;
 609              		.loc 1 203 9
 610 0010 FB89     		ldrh	r3, [r7, #14]	@ movhi
 611 0012 23F07F03 		bic	r3, r3, #127
 612 0016 FB81     		strh	r3, [r7, #14]	@ movhi
 204:../Firmware/GD32F30x_standard_peripheral/Source/gd32f30x_bkp.c ****     ctl |= (uint16_t)OCTL_RCCV(value);
 613              		.loc 1 204 12
 614 0018 FB79     		ldrb	r3, [r7, #7]	@ zero_extendqisi2
 615 001a 1BB2     		sxth	r3, r3
 616 001c 03F07F03 		and	r3, r3, #127
 617 0020 1AB2     		sxth	r2, r3
 618              		.loc 1 204 9
 619 0022 B7F90E30 		ldrsh	r3, [r7, #14]
 620 0026 1343     		orrs	r3, r3, r2
 621 0028 1BB2     		sxth	r3, r3
 622 002a FB81     		strh	r3, [r7, #14]	@ movhi
 205:../Firmware/GD32F30x_standard_peripheral/Source/gd32f30x_bkp.c ****     BKP_OCTL = ctl;
 623              		.loc 1 205 5
 624 002c 034A     		ldr	r2, .L36
 625              		.loc 1 205 14
 626 002e FB89     		ldrh	r3, [r7, #14]	@ movhi
 627 0030 1380     		strh	r3, [r2]	@ movhi
 206:../Firmware/GD32F30x_standard_peripheral/Source/gd32f30x_bkp.c **** }
 628              		.loc 1 206 1
 629 0032 00BF     		nop
 630 0034 1437     		adds	r7, r7, #20
 631              		.cfi_def_cfa_offset 4
 632 0036 BD46     		mov	sp, r7
 633              		.cfi_def_cfa_register 13
 634              		@ sp needed
 635 0038 80BC     		pop	{r7}
 636              		.cfi_restore 7
 637              		.cfi_def_cfa_offset 0
 638 003a 7047     		bx	lr
 639              	.L37:
 640              		.align	2
 641              	.L36:
 642 003c 2C6C0040 		.word	1073769516
 643              		.cfi_endproc
 644              	.LFE126:
 646              		.section	.text.bkp_tamper_detection_enable,"ax",%progbits
 647              		.align	1
 648              		.global	bkp_tamper_detection_enable
 649              		.syntax unified
 650              		.thumb
 651              		.thumb_func
 652              		.fpu softvfp
 654              	bkp_tamper_detection_enable:
 655              	.LFB127:
 207:../Firmware/GD32F30x_standard_peripheral/Source/gd32f30x_bkp.c **** 
 208:../Firmware/GD32F30x_standard_peripheral/Source/gd32f30x_bkp.c **** /*!
 209:../Firmware/GD32F30x_standard_peripheral/Source/gd32f30x_bkp.c ****     \brief      enable tamper detection
 210:../Firmware/GD32F30x_standard_peripheral/Source/gd32f30x_bkp.c ****     \param[in]  none
 211:../Firmware/GD32F30x_standard_peripheral/Source/gd32f30x_bkp.c ****     \param[out] none
 212:../Firmware/GD32F30x_standard_peripheral/Source/gd32f30x_bkp.c ****     \retval     none
 213:../Firmware/GD32F30x_standard_peripheral/Source/gd32f30x_bkp.c **** */
 214:../Firmware/GD32F30x_standard_peripheral/Source/gd32f30x_bkp.c **** void bkp_tamper_detection_enable(void)
 215:../Firmware/GD32F30x_standard_peripheral/Source/gd32f30x_bkp.c **** {
 656              		.loc 1 215 1
 657              		.cfi_startproc
 658              		@ args = 0, pretend = 0, frame = 0
 659              		@ frame_needed = 1, uses_anonymous_args = 0
 660              		@ link register save eliminated.
 661 0000 80B4     		push	{r7}
 662              		.cfi_def_cfa_offset 4
 663              		.cfi_offset 7, -4
 664 0002 00AF     		add	r7, sp, #0
 665              		.cfi_def_cfa_register 7
 216:../Firmware/GD32F30x_standard_peripheral/Source/gd32f30x_bkp.c ****     BKP_TPCTL |= (uint16_t)BKP_TPCTL_TPEN;
 666              		.loc 1 216 15
 667 0004 054B     		ldr	r3, .L39
 668 0006 1B88     		ldrh	r3, [r3]	@ movhi
 669 0008 9BB2     		uxth	r3, r3
 670 000a 044A     		ldr	r2, .L39
 671 000c 43F00103 		orr	r3, r3, #1
 672 0010 9BB2     		uxth	r3, r3
 673 0012 1380     		strh	r3, [r2]	@ movhi
 217:../Firmware/GD32F30x_standard_peripheral/Source/gd32f30x_bkp.c **** }
 674              		.loc 1 217 1
 675 0014 00BF     		nop
 676 0016 BD46     		mov	sp, r7
 677              		.cfi_def_cfa_register 13
 678              		@ sp needed
 679 0018 80BC     		pop	{r7}
 680              		.cfi_restore 7
 681              		.cfi_def_cfa_offset 0
 682 001a 7047     		bx	lr
 683              	.L40:
 684              		.align	2
 685              	.L39:
 686 001c 306C0040 		.word	1073769520
 687              		.cfi_endproc
 688              	.LFE127:
 690              		.section	.text.bkp_tamper_detection_disable,"ax",%progbits
 691              		.align	1
 692              		.global	bkp_tamper_detection_disable
 693              		.syntax unified
 694              		.thumb
 695              		.thumb_func
 696              		.fpu softvfp
 698              	bkp_tamper_detection_disable:
 699              	.LFB128:
 218:../Firmware/GD32F30x_standard_peripheral/Source/gd32f30x_bkp.c **** 
 219:../Firmware/GD32F30x_standard_peripheral/Source/gd32f30x_bkp.c **** /*!
 220:../Firmware/GD32F30x_standard_peripheral/Source/gd32f30x_bkp.c ****     \brief      disable tamper detection
 221:../Firmware/GD32F30x_standard_peripheral/Source/gd32f30x_bkp.c ****     \param[in]  none
 222:../Firmware/GD32F30x_standard_peripheral/Source/gd32f30x_bkp.c ****     \param[out] none
 223:../Firmware/GD32F30x_standard_peripheral/Source/gd32f30x_bkp.c ****     \retval     none
 224:../Firmware/GD32F30x_standard_peripheral/Source/gd32f30x_bkp.c **** */
 225:../Firmware/GD32F30x_standard_peripheral/Source/gd32f30x_bkp.c **** void bkp_tamper_detection_disable(void)
 226:../Firmware/GD32F30x_standard_peripheral/Source/gd32f30x_bkp.c **** {
 700              		.loc 1 226 1
 701              		.cfi_startproc
 702              		@ args = 0, pretend = 0, frame = 0
 703              		@ frame_needed = 1, uses_anonymous_args = 0
 704              		@ link register save eliminated.
 705 0000 80B4     		push	{r7}
 706              		.cfi_def_cfa_offset 4
 707              		.cfi_offset 7, -4
 708 0002 00AF     		add	r7, sp, #0
 709              		.cfi_def_cfa_register 7
 227:../Firmware/GD32F30x_standard_peripheral/Source/gd32f30x_bkp.c ****     BKP_TPCTL &= (uint16_t)~BKP_TPCTL_TPEN;
 710              		.loc 1 227 15
 711 0004 054B     		ldr	r3, .L42
 712 0006 1B88     		ldrh	r3, [r3]	@ movhi
 713 0008 9BB2     		uxth	r3, r3
 714 000a 044A     		ldr	r2, .L42
 715 000c 23F00103 		bic	r3, r3, #1
 716 0010 9BB2     		uxth	r3, r3
 717 0012 1380     		strh	r3, [r2]	@ movhi
 228:../Firmware/GD32F30x_standard_peripheral/Source/gd32f30x_bkp.c **** }
 718              		.loc 1 228 1
 719 0014 00BF     		nop
 720 0016 BD46     		mov	sp, r7
 721              		.cfi_def_cfa_register 13
 722              		@ sp needed
 723 0018 80BC     		pop	{r7}
 724              		.cfi_restore 7
 725              		.cfi_def_cfa_offset 0
 726 001a 7047     		bx	lr
 727              	.L43:
 728              		.align	2
 729              	.L42:
 730 001c 306C0040 		.word	1073769520
 731              		.cfi_endproc
 732              	.LFE128:
 734              		.section	.text.bkp_tamper_active_level_set,"ax",%progbits
 735              		.align	1
 736              		.global	bkp_tamper_active_level_set
 737              		.syntax unified
 738              		.thumb
 739              		.thumb_func
 740              		.fpu softvfp
 742              	bkp_tamper_active_level_set:
 743              	.LFB129:
 229:../Firmware/GD32F30x_standard_peripheral/Source/gd32f30x_bkp.c **** 
 230:../Firmware/GD32F30x_standard_peripheral/Source/gd32f30x_bkp.c **** /*!
 231:../Firmware/GD32F30x_standard_peripheral/Source/gd32f30x_bkp.c ****     \brief      set tamper pin active level
 232:../Firmware/GD32F30x_standard_peripheral/Source/gd32f30x_bkp.c ****     \param[in]  level: tamper active level
 233:../Firmware/GD32F30x_standard_peripheral/Source/gd32f30x_bkp.c ****       \arg        TAMPER_PIN_ACTIVE_HIGH: the tamper pin is active high
 234:../Firmware/GD32F30x_standard_peripheral/Source/gd32f30x_bkp.c ****       \arg        TAMPER_PIN_ACTIVE_LOW: the tamper pin is active low
 235:../Firmware/GD32F30x_standard_peripheral/Source/gd32f30x_bkp.c ****     \param[out] none
 236:../Firmware/GD32F30x_standard_peripheral/Source/gd32f30x_bkp.c ****     \retval     none
 237:../Firmware/GD32F30x_standard_peripheral/Source/gd32f30x_bkp.c **** */
 238:../Firmware/GD32F30x_standard_peripheral/Source/gd32f30x_bkp.c **** void bkp_tamper_active_level_set(uint16_t level)
 239:../Firmware/GD32F30x_standard_peripheral/Source/gd32f30x_bkp.c **** {
 744              		.loc 1 239 1
 745              		.cfi_startproc
 746              		@ args = 0, pretend = 0, frame = 16
 747              		@ frame_needed = 1, uses_anonymous_args = 0
 748              		@ link register save eliminated.
 749 0000 80B4     		push	{r7}
 750              		.cfi_def_cfa_offset 4
 751              		.cfi_offset 7, -4
 752 0002 85B0     		sub	sp, sp, #20
 753              		.cfi_def_cfa_offset 24
 754 0004 00AF     		add	r7, sp, #0
 755              		.cfi_def_cfa_register 7
 756 0006 0346     		mov	r3, r0
 757 0008 FB80     		strh	r3, [r7, #6]	@ movhi
 240:../Firmware/GD32F30x_standard_peripheral/Source/gd32f30x_bkp.c ****     uint16_t ctl = 0U;
 758              		.loc 1 240 14
 759 000a 0023     		movs	r3, #0
 760 000c FB81     		strh	r3, [r7, #14]	@ movhi
 241:../Firmware/GD32F30x_standard_peripheral/Source/gd32f30x_bkp.c ****     
 242:../Firmware/GD32F30x_standard_peripheral/Source/gd32f30x_bkp.c ****     ctl = BKP_TPCTL;
 761              		.loc 1 242 11
 762 000e 094B     		ldr	r3, .L45
 763              		.loc 1 242 9
 764 0010 1B88     		ldrh	r3, [r3]	@ movhi
 765 0012 FB81     		strh	r3, [r7, #14]	@ movhi
 243:../Firmware/GD32F30x_standard_peripheral/Source/gd32f30x_bkp.c ****     ctl &= (uint16_t)~BKP_TPCTL_TPAL;
 766              		.loc 1 243 9
 767 0014 FB89     		ldrh	r3, [r7, #14]	@ movhi
 768 0016 23F00203 		bic	r3, r3, #2
 769 001a FB81     		strh	r3, [r7, #14]	@ movhi
 244:../Firmware/GD32F30x_standard_peripheral/Source/gd32f30x_bkp.c ****     ctl |= level;
 770              		.loc 1 244 9
 771 001c FA89     		ldrh	r2, [r7, #14]	@ movhi
 772 001e FB88     		ldrh	r3, [r7, #6]	@ movhi
 773 0020 1343     		orrs	r3, r3, r2
 774 0022 FB81     		strh	r3, [r7, #14]	@ movhi
 245:../Firmware/GD32F30x_standard_peripheral/Source/gd32f30x_bkp.c ****     BKP_TPCTL = ctl;
 775              		.loc 1 245 5
 776 0024 034A     		ldr	r2, .L45
 777              		.loc 1 245 15
 778 0026 FB89     		ldrh	r3, [r7, #14]	@ movhi
 779 0028 1380     		strh	r3, [r2]	@ movhi
 246:../Firmware/GD32F30x_standard_peripheral/Source/gd32f30x_bkp.c **** }
 780              		.loc 1 246 1
 781 002a 00BF     		nop
 782 002c 1437     		adds	r7, r7, #20
 783              		.cfi_def_cfa_offset 4
 784 002e BD46     		mov	sp, r7
 785              		.cfi_def_cfa_register 13
 786              		@ sp needed
 787 0030 80BC     		pop	{r7}
 788              		.cfi_restore 7
 789              		.cfi_def_cfa_offset 0
 790 0032 7047     		bx	lr
 791              	.L46:
 792              		.align	2
 793              	.L45:
 794 0034 306C0040 		.word	1073769520
 795              		.cfi_endproc
 796              	.LFE129:
 798              		.section	.text.bkp_tamper_interrupt_enable,"ax",%progbits
 799              		.align	1
 800              		.global	bkp_tamper_interrupt_enable
 801              		.syntax unified
 802              		.thumb
 803              		.thumb_func
 804              		.fpu softvfp
 806              	bkp_tamper_interrupt_enable:
 807              	.LFB130:
 247:../Firmware/GD32F30x_standard_peripheral/Source/gd32f30x_bkp.c **** 
 248:../Firmware/GD32F30x_standard_peripheral/Source/gd32f30x_bkp.c **** /*!
 249:../Firmware/GD32F30x_standard_peripheral/Source/gd32f30x_bkp.c ****     \brief      enable tamper interrupt
 250:../Firmware/GD32F30x_standard_peripheral/Source/gd32f30x_bkp.c ****     \param[in]  none
 251:../Firmware/GD32F30x_standard_peripheral/Source/gd32f30x_bkp.c ****     \param[out] none
 252:../Firmware/GD32F30x_standard_peripheral/Source/gd32f30x_bkp.c ****     \retval     none
 253:../Firmware/GD32F30x_standard_peripheral/Source/gd32f30x_bkp.c **** */
 254:../Firmware/GD32F30x_standard_peripheral/Source/gd32f30x_bkp.c **** void bkp_tamper_interrupt_enable(void)
 255:../Firmware/GD32F30x_standard_peripheral/Source/gd32f30x_bkp.c **** {
 808              		.loc 1 255 1
 809              		.cfi_startproc
 810              		@ args = 0, pretend = 0, frame = 0
 811              		@ frame_needed = 1, uses_anonymous_args = 0
 812              		@ link register save eliminated.
 813 0000 80B4     		push	{r7}
 814              		.cfi_def_cfa_offset 4
 815              		.cfi_offset 7, -4
 816 0002 00AF     		add	r7, sp, #0
 817              		.cfi_def_cfa_register 7
 256:../Firmware/GD32F30x_standard_peripheral/Source/gd32f30x_bkp.c ****     BKP_TPCS |= (uint16_t)BKP_TPCS_TPIE;
 818              		.loc 1 256 14
 819 0004 054B     		ldr	r3, .L48
 820 0006 1B88     		ldrh	r3, [r3]	@ movhi
 821 0008 9BB2     		uxth	r3, r3
 822 000a 044A     		ldr	r2, .L48
 823 000c 43F00403 		orr	r3, r3, #4
 824 0010 9BB2     		uxth	r3, r3
 825 0012 1380     		strh	r3, [r2]	@ movhi
 257:../Firmware/GD32F30x_standard_peripheral/Source/gd32f30x_bkp.c **** }
 826              		.loc 1 257 1
 827 0014 00BF     		nop
 828 0016 BD46     		mov	sp, r7
 829              		.cfi_def_cfa_register 13
 830              		@ sp needed
 831 0018 80BC     		pop	{r7}
 832              		.cfi_restore 7
 833              		.cfi_def_cfa_offset 0
 834 001a 7047     		bx	lr
 835              	.L49:
 836              		.align	2
 837              	.L48:
 838 001c 346C0040 		.word	1073769524
 839              		.cfi_endproc
 840              	.LFE130:
 842              		.section	.text.bkp_tamper_interrupt_disable,"ax",%progbits
 843              		.align	1
 844              		.global	bkp_tamper_interrupt_disable
 845              		.syntax unified
 846              		.thumb
 847              		.thumb_func
 848              		.fpu softvfp
 850              	bkp_tamper_interrupt_disable:
 851              	.LFB131:
 258:../Firmware/GD32F30x_standard_peripheral/Source/gd32f30x_bkp.c **** 
 259:../Firmware/GD32F30x_standard_peripheral/Source/gd32f30x_bkp.c **** /*!
 260:../Firmware/GD32F30x_standard_peripheral/Source/gd32f30x_bkp.c ****     \brief      disable tamper interrupt
 261:../Firmware/GD32F30x_standard_peripheral/Source/gd32f30x_bkp.c ****     \param[in]  none
 262:../Firmware/GD32F30x_standard_peripheral/Source/gd32f30x_bkp.c ****     \param[out] none
 263:../Firmware/GD32F30x_standard_peripheral/Source/gd32f30x_bkp.c ****     \retval     none
 264:../Firmware/GD32F30x_standard_peripheral/Source/gd32f30x_bkp.c **** */
 265:../Firmware/GD32F30x_standard_peripheral/Source/gd32f30x_bkp.c **** void bkp_tamper_interrupt_disable(void)
 266:../Firmware/GD32F30x_standard_peripheral/Source/gd32f30x_bkp.c **** {
 852              		.loc 1 266 1
 853              		.cfi_startproc
 854              		@ args = 0, pretend = 0, frame = 0
 855              		@ frame_needed = 1, uses_anonymous_args = 0
 856              		@ link register save eliminated.
 857 0000 80B4     		push	{r7}
 858              		.cfi_def_cfa_offset 4
 859              		.cfi_offset 7, -4
 860 0002 00AF     		add	r7, sp, #0
 861              		.cfi_def_cfa_register 7
 267:../Firmware/GD32F30x_standard_peripheral/Source/gd32f30x_bkp.c ****     BKP_TPCS &= (uint16_t)~BKP_TPCS_TPIE;
 862              		.loc 1 267 14
 863 0004 054B     		ldr	r3, .L51
 864 0006 1B88     		ldrh	r3, [r3]	@ movhi
 865 0008 9BB2     		uxth	r3, r3
 866 000a 044A     		ldr	r2, .L51
 867 000c 23F00403 		bic	r3, r3, #4
 868 0010 9BB2     		uxth	r3, r3
 869 0012 1380     		strh	r3, [r2]	@ movhi
 268:../Firmware/GD32F30x_standard_peripheral/Source/gd32f30x_bkp.c **** }
 870              		.loc 1 268 1
 871 0014 00BF     		nop
 872 0016 BD46     		mov	sp, r7
 873              		.cfi_def_cfa_register 13
 874              		@ sp needed
 875 0018 80BC     		pop	{r7}
 876              		.cfi_restore 7
 877              		.cfi_def_cfa_offset 0
 878 001a 7047     		bx	lr
 879              	.L52:
 880              		.align	2
 881              	.L51:
 882 001c 346C0040 		.word	1073769524
 883              		.cfi_endproc
 884              	.LFE131:
 886              		.section	.text.bkp_flag_get,"ax",%progbits
 887              		.align	1
 888              		.global	bkp_flag_get
 889              		.syntax unified
 890              		.thumb
 891              		.thumb_func
 892              		.fpu softvfp
 894              	bkp_flag_get:
 895              	.LFB132:
 269:../Firmware/GD32F30x_standard_peripheral/Source/gd32f30x_bkp.c **** 
 270:../Firmware/GD32F30x_standard_peripheral/Source/gd32f30x_bkp.c **** /*!
 271:../Firmware/GD32F30x_standard_peripheral/Source/gd32f30x_bkp.c ****     \brief      get bkp flag state
 272:../Firmware/GD32F30x_standard_peripheral/Source/gd32f30x_bkp.c ****     \param[in]  flag
 273:../Firmware/GD32F30x_standard_peripheral/Source/gd32f30x_bkp.c ****       \arg        BKP_FLAG_TAMPER: tamper event flag
 274:../Firmware/GD32F30x_standard_peripheral/Source/gd32f30x_bkp.c ****     \param[out] none
 275:../Firmware/GD32F30x_standard_peripheral/Source/gd32f30x_bkp.c ****     \retval     FlagStatus: SET or RESET
 276:../Firmware/GD32F30x_standard_peripheral/Source/gd32f30x_bkp.c **** */
 277:../Firmware/GD32F30x_standard_peripheral/Source/gd32f30x_bkp.c **** FlagStatus bkp_flag_get(uint16_t flag)
 278:../Firmware/GD32F30x_standard_peripheral/Source/gd32f30x_bkp.c **** {
 896              		.loc 1 278 1
 897              		.cfi_startproc
 898              		@ args = 0, pretend = 0, frame = 8
 899              		@ frame_needed = 1, uses_anonymous_args = 0
 900              		@ link register save eliminated.
 901 0000 80B4     		push	{r7}
 902              		.cfi_def_cfa_offset 4
 903              		.cfi_offset 7, -4
 904 0002 83B0     		sub	sp, sp, #12
 905              		.cfi_def_cfa_offset 16
 906 0004 00AF     		add	r7, sp, #0
 907              		.cfi_def_cfa_register 7
 908 0006 0346     		mov	r3, r0
 909 0008 FB80     		strh	r3, [r7, #6]	@ movhi
 279:../Firmware/GD32F30x_standard_peripheral/Source/gd32f30x_bkp.c ****     if(RESET != (BKP_TPCS & flag)){
 910              		.loc 1 279 18
 911 000a 084B     		ldr	r3, .L56
 912 000c 1B88     		ldrh	r3, [r3]	@ movhi
 913 000e 9AB2     		uxth	r2, r3
 914              		.loc 1 279 14
 915 0010 FB88     		ldrh	r3, [r7, #6]	@ movhi
 916 0012 1340     		ands	r3, r3, r2
 917 0014 9BB2     		uxth	r3, r3
 918              		.loc 1 279 7
 919 0016 002B     		cmp	r3, #0
 920 0018 01D0     		beq	.L54
 280:../Firmware/GD32F30x_standard_peripheral/Source/gd32f30x_bkp.c ****         return SET;
 921              		.loc 1 280 16
 922 001a 0123     		movs	r3, #1
 923 001c 00E0     		b	.L55
 924              	.L54:
 281:../Firmware/GD32F30x_standard_peripheral/Source/gd32f30x_bkp.c ****     }else{
 282:../Firmware/GD32F30x_standard_peripheral/Source/gd32f30x_bkp.c ****         return RESET;
 925              		.loc 1 282 16
 926 001e 0023     		movs	r3, #0
 927              	.L55:
 283:../Firmware/GD32F30x_standard_peripheral/Source/gd32f30x_bkp.c ****     }
 284:../Firmware/GD32F30x_standard_peripheral/Source/gd32f30x_bkp.c **** }
 928              		.loc 1 284 1
 929 0020 1846     		mov	r0, r3
 930 0022 0C37     		adds	r7, r7, #12
 931              		.cfi_def_cfa_offset 4
 932 0024 BD46     		mov	sp, r7
 933              		.cfi_def_cfa_register 13
 934              		@ sp needed
 935 0026 80BC     		pop	{r7}
 936              		.cfi_restore 7
 937              		.cfi_def_cfa_offset 0
 938 0028 7047     		bx	lr
 939              	.L57:
 940 002a 00BF     		.align	2
 941              	.L56:
 942 002c 346C0040 		.word	1073769524
 943              		.cfi_endproc
 944              	.LFE132:
 946              		.section	.text.bkp_flag_clear,"ax",%progbits
 947              		.align	1
 948              		.global	bkp_flag_clear
 949              		.syntax unified
 950              		.thumb
 951              		.thumb_func
 952              		.fpu softvfp
 954              	bkp_flag_clear:
 955              	.LFB133:
 285:../Firmware/GD32F30x_standard_peripheral/Source/gd32f30x_bkp.c **** 
 286:../Firmware/GD32F30x_standard_peripheral/Source/gd32f30x_bkp.c **** /*!
 287:../Firmware/GD32F30x_standard_peripheral/Source/gd32f30x_bkp.c ****     \brief      clear bkp flag state
 288:../Firmware/GD32F30x_standard_peripheral/Source/gd32f30x_bkp.c ****     \param[in]  flag
 289:../Firmware/GD32F30x_standard_peripheral/Source/gd32f30x_bkp.c ****       \arg        BKP_FLAG_TAMPER: tamper event flag
 290:../Firmware/GD32F30x_standard_peripheral/Source/gd32f30x_bkp.c ****     \param[out] none
 291:../Firmware/GD32F30x_standard_peripheral/Source/gd32f30x_bkp.c ****     \retval     none
 292:../Firmware/GD32F30x_standard_peripheral/Source/gd32f30x_bkp.c **** */
 293:../Firmware/GD32F30x_standard_peripheral/Source/gd32f30x_bkp.c **** void bkp_flag_clear(uint16_t flag)
 294:../Firmware/GD32F30x_standard_peripheral/Source/gd32f30x_bkp.c **** {
 956              		.loc 1 294 1
 957              		.cfi_startproc
 958              		@ args = 0, pretend = 0, frame = 8
 959              		@ frame_needed = 1, uses_anonymous_args = 0
 960              		@ link register save eliminated.
 961 0000 80B4     		push	{r7}
 962              		.cfi_def_cfa_offset 4
 963              		.cfi_offset 7, -4
 964 0002 83B0     		sub	sp, sp, #12
 965              		.cfi_def_cfa_offset 16
 966 0004 00AF     		add	r7, sp, #0
 967              		.cfi_def_cfa_register 7
 968 0006 0346     		mov	r3, r0
 969 0008 FB80     		strh	r3, [r7, #6]	@ movhi
 295:../Firmware/GD32F30x_standard_peripheral/Source/gd32f30x_bkp.c ****         BKP_TPCS |= (uint16_t)(flag >> TAMPER_FLAG_SHIFT);
 970              		.loc 1 295 18
 971 000a 074B     		ldr	r3, .L59
 972 000c 1B88     		ldrh	r3, [r3]	@ movhi
 973 000e 9AB2     		uxth	r2, r3
 974              		.loc 1 295 21
 975 0010 FB88     		ldrh	r3, [r7, #6]
 976 0012 1B0A     		lsrs	r3, r3, #8
 977 0014 9BB2     		uxth	r3, r3
 978              		.loc 1 295 18
 979 0016 0449     		ldr	r1, .L59
 980 0018 1343     		orrs	r3, r3, r2
 981 001a 9BB2     		uxth	r3, r3
 982 001c 0B80     		strh	r3, [r1]	@ movhi
 296:../Firmware/GD32F30x_standard_peripheral/Source/gd32f30x_bkp.c **** }
 983              		.loc 1 296 1
 984 001e 00BF     		nop
 985 0020 0C37     		adds	r7, r7, #12
 986              		.cfi_def_cfa_offset 4
 987 0022 BD46     		mov	sp, r7
 988              		.cfi_def_cfa_register 13
 989              		@ sp needed
 990 0024 80BC     		pop	{r7}
 991              		.cfi_restore 7
 992              		.cfi_def_cfa_offset 0
 993 0026 7047     		bx	lr
 994              	.L60:
 995              		.align	2
 996              	.L59:
 997 0028 346C0040 		.word	1073769524
 998              		.cfi_endproc
 999              	.LFE133:
 1001              		.section	.text.bkp_interrupt_flag_get,"ax",%progbits
 1002              		.align	1
 1003              		.global	bkp_interrupt_flag_get
 1004              		.syntax unified
 1005              		.thumb
 1006              		.thumb_func
 1007              		.fpu softvfp
 1009              	bkp_interrupt_flag_get:
 1010              	.LFB134:
 297:../Firmware/GD32F30x_standard_peripheral/Source/gd32f30x_bkp.c **** 
 298:../Firmware/GD32F30x_standard_peripheral/Source/gd32f30x_bkp.c **** /*!
 299:../Firmware/GD32F30x_standard_peripheral/Source/gd32f30x_bkp.c ****     \brief      get bkp interrupt flag state
 300:../Firmware/GD32F30x_standard_peripheral/Source/gd32f30x_bkp.c ****     \param[in]  flag
 301:../Firmware/GD32F30x_standard_peripheral/Source/gd32f30x_bkp.c ****       \arg        BKP_INT_FLAG_TAMPER: tamper interrupt flag
 302:../Firmware/GD32F30x_standard_peripheral/Source/gd32f30x_bkp.c ****     \param[out] none
 303:../Firmware/GD32F30x_standard_peripheral/Source/gd32f30x_bkp.c ****     \retval     FlagStatus: SET or RESET
 304:../Firmware/GD32F30x_standard_peripheral/Source/gd32f30x_bkp.c **** */
 305:../Firmware/GD32F30x_standard_peripheral/Source/gd32f30x_bkp.c **** FlagStatus bkp_interrupt_flag_get(uint16_t flag)
 306:../Firmware/GD32F30x_standard_peripheral/Source/gd32f30x_bkp.c **** {
 1011              		.loc 1 306 1
 1012              		.cfi_startproc
 1013              		@ args = 0, pretend = 0, frame = 8
 1014              		@ frame_needed = 1, uses_anonymous_args = 0
 1015              		@ link register save eliminated.
 1016 0000 80B4     		push	{r7}
 1017              		.cfi_def_cfa_offset 4
 1018              		.cfi_offset 7, -4
 1019 0002 83B0     		sub	sp, sp, #12
 1020              		.cfi_def_cfa_offset 16
 1021 0004 00AF     		add	r7, sp, #0
 1022              		.cfi_def_cfa_register 7
 1023 0006 0346     		mov	r3, r0
 1024 0008 FB80     		strh	r3, [r7, #6]	@ movhi
 307:../Firmware/GD32F30x_standard_peripheral/Source/gd32f30x_bkp.c ****     if(RESET != (BKP_TPCS & flag)){
 1025              		.loc 1 307 18
 1026 000a 084B     		ldr	r3, .L64
 1027 000c 1B88     		ldrh	r3, [r3]	@ movhi
 1028 000e 9AB2     		uxth	r2, r3
 1029              		.loc 1 307 14
 1030 0010 FB88     		ldrh	r3, [r7, #6]	@ movhi
 1031 0012 1340     		ands	r3, r3, r2
 1032 0014 9BB2     		uxth	r3, r3
 1033              		.loc 1 307 7
 1034 0016 002B     		cmp	r3, #0
 1035 0018 01D0     		beq	.L62
 308:../Firmware/GD32F30x_standard_peripheral/Source/gd32f30x_bkp.c ****         return SET;
 1036              		.loc 1 308 16
 1037 001a 0123     		movs	r3, #1
 1038 001c 00E0     		b	.L63
 1039              	.L62:
 309:../Firmware/GD32F30x_standard_peripheral/Source/gd32f30x_bkp.c ****     }else{
 310:../Firmware/GD32F30x_standard_peripheral/Source/gd32f30x_bkp.c ****         return RESET;
 1040              		.loc 1 310 16
 1041 001e 0023     		movs	r3, #0
 1042              	.L63:
 311:../Firmware/GD32F30x_standard_peripheral/Source/gd32f30x_bkp.c ****     }
 312:../Firmware/GD32F30x_standard_peripheral/Source/gd32f30x_bkp.c **** }
 1043              		.loc 1 312 1
 1044 0020 1846     		mov	r0, r3
 1045 0022 0C37     		adds	r7, r7, #12
 1046              		.cfi_def_cfa_offset 4
 1047 0024 BD46     		mov	sp, r7
 1048              		.cfi_def_cfa_register 13
 1049              		@ sp needed
 1050 0026 80BC     		pop	{r7}
 1051              		.cfi_restore 7
 1052              		.cfi_def_cfa_offset 0
 1053 0028 7047     		bx	lr
 1054              	.L65:
 1055 002a 00BF     		.align	2
 1056              	.L64:
 1057 002c 346C0040 		.word	1073769524
 1058              		.cfi_endproc
 1059              	.LFE134:
 1061              		.section	.text.bkp_interrupt_flag_clear,"ax",%progbits
 1062              		.align	1
 1063              		.global	bkp_interrupt_flag_clear
 1064              		.syntax unified
 1065              		.thumb
 1066              		.thumb_func
 1067              		.fpu softvfp
 1069              	bkp_interrupt_flag_clear:
 1070              	.LFB135:
 313:../Firmware/GD32F30x_standard_peripheral/Source/gd32f30x_bkp.c **** 
 314:../Firmware/GD32F30x_standard_peripheral/Source/gd32f30x_bkp.c **** /*!
 315:../Firmware/GD32F30x_standard_peripheral/Source/gd32f30x_bkp.c ****     \brief      clear bkp interrupt flag state
 316:../Firmware/GD32F30x_standard_peripheral/Source/gd32f30x_bkp.c ****     \param[in]  flag
 317:../Firmware/GD32F30x_standard_peripheral/Source/gd32f30x_bkp.c ****       \arg        BKP_INT_FLAG_TAMPER: tamper interrupt flag
 318:../Firmware/GD32F30x_standard_peripheral/Source/gd32f30x_bkp.c ****     \param[out] none
 319:../Firmware/GD32F30x_standard_peripheral/Source/gd32f30x_bkp.c ****     \retval     none
 320:../Firmware/GD32F30x_standard_peripheral/Source/gd32f30x_bkp.c **** */
 321:../Firmware/GD32F30x_standard_peripheral/Source/gd32f30x_bkp.c **** void bkp_interrupt_flag_clear(uint16_t flag)
 322:../Firmware/GD32F30x_standard_peripheral/Source/gd32f30x_bkp.c **** {
 1071              		.loc 1 322 1
 1072              		.cfi_startproc
 1073              		@ args = 0, pretend = 0, frame = 8
 1074              		@ frame_needed = 1, uses_anonymous_args = 0
 1075              		@ link register save eliminated.
 1076 0000 80B4     		push	{r7}
 1077              		.cfi_def_cfa_offset 4
 1078              		.cfi_offset 7, -4
 1079 0002 83B0     		sub	sp, sp, #12
 1080              		.cfi_def_cfa_offset 16
 1081 0004 00AF     		add	r7, sp, #0
 1082              		.cfi_def_cfa_register 7
 1083 0006 0346     		mov	r3, r0
 1084 0008 FB80     		strh	r3, [r7, #6]	@ movhi
 323:../Firmware/GD32F30x_standard_peripheral/Source/gd32f30x_bkp.c ****     BKP_TPCS |= (uint16_t)(flag >> TAMPER_FLAG_SHIFT);
 1085              		.loc 1 323 14
 1086 000a 074B     		ldr	r3, .L67
 1087 000c 1B88     		ldrh	r3, [r3]	@ movhi
 1088 000e 9AB2     		uxth	r2, r3
 1089              		.loc 1 323 17
 1090 0010 FB88     		ldrh	r3, [r7, #6]
 1091 0012 1B0A     		lsrs	r3, r3, #8
 1092 0014 9BB2     		uxth	r3, r3
 1093              		.loc 1 323 14
 1094 0016 0449     		ldr	r1, .L67
 1095 0018 1343     		orrs	r3, r3, r2
 1096 001a 9BB2     		uxth	r3, r3
 1097 001c 0B80     		strh	r3, [r1]	@ movhi
 324:../Firmware/GD32F30x_standard_peripheral/Source/gd32f30x_bkp.c **** }
 1098              		.loc 1 324 1
 1099 001e 00BF     		nop
 1100 0020 0C37     		adds	r7, r7, #12
 1101              		.cfi_def_cfa_offset 4
 1102 0022 BD46     		mov	sp, r7
 1103              		.cfi_def_cfa_register 13
 1104              		@ sp needed
 1105 0024 80BC     		pop	{r7}
 1106              		.cfi_restore 7
 1107              		.cfi_def_cfa_offset 0
 1108 0026 7047     		bx	lr
 1109              	.L68:
 1110              		.align	2
 1111              	.L67:
 1112 0028 346C0040 		.word	1073769524
 1113              		.cfi_endproc
 1114              	.LFE135:
 1116              		.text
 1117              	.Letext0:
 1118              		.file 2 "c:\\gd32embeddedbuilder_1.5.3.31964\\gd32embeddedbuilder_1.5.3.31964\\tools\\gnu tools ar
 1119              		.file 3 "c:\\gd32embeddedbuilder_1.5.3.31964\\gd32embeddedbuilder_1.5.3.31964\\tools\\gnu tools ar
 1120              		.file 4 "../Firmware/CMSIS/core_cm4.h"
 1121              		.file 5 "../Firmware/CMSIS/GD/GD32F30x/Include/system_gd32f30x.h"
 1122              		.file 6 "../Firmware/CMSIS/GD/GD32F30x/Include/gd32f30x.h"
 1123              		.file 7 "../Firmware/GD32F30x_standard_peripheral/Include/gd32f30x_bkp.h"