   1              		.cpu cortex-m4
   2              		.eabi_attribute 20, 1
   3              		.eabi_attribute 21, 1
   4              		.eabi_attribute 23, 3
   5              		.eabi_attribute 24, 1
   6              		.eabi_attribute 25, 1
   7              		.eabi_attribute 26, 1
   8              		.eabi_attribute 30, 6
   9              		.eabi_attribute 34, 1
  10              		.eabi_attribute 18, 4
  11              		.file	"syscalls.c"
  12              		.text
  13              	.Ltext0:
  14              		.cfi_sections	.debug_frame
  15              		.section	.data.curbrk.6120,"aw"
  16              		.align	2
  19              	curbrk.6120:
  20 0000 00000000 		.word	_end
  21              		.section	.text._sbrk,"ax",%progbits
  22              		.align	1
  23              		.global	_sbrk
  24              		.arch armv7e-m
  25              		.syntax unified
  26              		.thumb
  27              		.thumb_func
  28              		.fpu softvfp
  30              	_sbrk:
  31              	.LFB25:
  32              		.file 1 "../Firmware/CMSIS/GD/GD32F30x/Source/syscalls.c"
   1:../Firmware/CMSIS/GD/GD32F30x/Source/syscalls.c **** /* Support files for GNU libc.  Files in the system namespace go here.
   2:../Firmware/CMSIS/GD/GD32F30x/Source/syscalls.c ****    Files in the C namespace (ie those that do not start with an
   3:../Firmware/CMSIS/GD/GD32F30x/Source/syscalls.c ****    underscore) go in .c.  */
   4:../Firmware/CMSIS/GD/GD32F30x/Source/syscalls.c **** 
   5:../Firmware/CMSIS/GD/GD32F30x/Source/syscalls.c **** #include <_ansi.h>
   6:../Firmware/CMSIS/GD/GD32F30x/Source/syscalls.c **** #include <sys/types.h>
   7:../Firmware/CMSIS/GD/GD32F30x/Source/syscalls.c **** #include <sys/stat.h>
   8:../Firmware/CMSIS/GD/GD32F30x/Source/syscalls.c **** #include <sys/fcntl.h>
   9:../Firmware/CMSIS/GD/GD32F30x/Source/syscalls.c **** #include <stdio.h>
  10:../Firmware/CMSIS/GD/GD32F30x/Source/syscalls.c **** #include <string.h>
  11:../Firmware/CMSIS/GD/GD32F30x/Source/syscalls.c **** #include <time.h>
  12:../Firmware/CMSIS/GD/GD32F30x/Source/syscalls.c **** #include <sys/time.h>
  13:../Firmware/CMSIS/GD/GD32F30x/Source/syscalls.c **** #include <sys/times.h>
  14:../Firmware/CMSIS/GD/GD32F30x/Source/syscalls.c **** #include <errno.h>
  15:../Firmware/CMSIS/GD/GD32F30x/Source/syscalls.c **** #include <reent.h>
  16:../Firmware/CMSIS/GD/GD32F30x/Source/syscalls.c **** #include <unistd.h>
  17:../Firmware/CMSIS/GD/GD32F30x/Source/syscalls.c **** #include <sys/wait.h>
  18:../Firmware/CMSIS/GD/GD32F30x/Source/syscalls.c **** 
  19:../Firmware/CMSIS/GD/GD32F30x/Source/syscalls.c **** #undef errno
  20:../Firmware/CMSIS/GD/GD32F30x/Source/syscalls.c **** extern int errno;
  21:../Firmware/CMSIS/GD/GD32F30x/Source/syscalls.c **** 
  22:../Firmware/CMSIS/GD/GD32F30x/Source/syscalls.c **** extern int __io_putchar(int ch) __attribute__((weak));
  23:../Firmware/CMSIS/GD/GD32F30x/Source/syscalls.c **** extern int __io_getchar(void) __attribute__((weak));
  24:../Firmware/CMSIS/GD/GD32F30x/Source/syscalls.c **** 
  25:../Firmware/CMSIS/GD/GD32F30x/Source/syscalls.c **** caddr_t _sbrk(int incr)
  26:../Firmware/CMSIS/GD/GD32F30x/Source/syscalls.c **** {
  33              		.loc 1 26 1
  34              		.cfi_startproc
  35              		@ args = 0, pretend = 0, frame = 8
  36              		@ frame_needed = 1, uses_anonymous_args = 0
  37              		@ link register save eliminated.
  38 0000 80B4     		push	{r7}
  39              		.cfi_def_cfa_offset 4
  40              		.cfi_offset 7, -4
  41 0002 83B0     		sub	sp, sp, #12
  42              		.cfi_def_cfa_offset 16
  43 0004 00AF     		add	r7, sp, #0
  44              		.cfi_def_cfa_register 7
  45 0006 7860     		str	r0, [r7, #4]
  27:../Firmware/CMSIS/GD/GD32F30x/Source/syscalls.c ****   extern char _end[];
  28:../Firmware/CMSIS/GD/GD32F30x/Source/syscalls.c ****   extern char _heap_end[];
  29:../Firmware/CMSIS/GD/GD32F30x/Source/syscalls.c ****   static char *curbrk = _end;
  30:../Firmware/CMSIS/GD/GD32F30x/Source/syscalls.c **** 
  31:../Firmware/CMSIS/GD/GD32F30x/Source/syscalls.c ****   if ((curbrk + incr < _end) || (curbrk + incr > _heap_end))
  46              		.loc 1 31 15
  47 0008 104B     		ldr	r3, .L5
  48 000a 1A68     		ldr	r2, [r3]
  49 000c 7B68     		ldr	r3, [r7, #4]
  50 000e 1344     		add	r3, r3, r2
  51              		.loc 1 31 6
  52 0010 0F4A     		ldr	r2, .L5+4
  53 0012 9342     		cmp	r3, r2
  54 0014 06D3     		bcc	.L2
  55              		.loc 1 31 41 discriminator 1
  56 0016 0D4B     		ldr	r3, .L5
  57 0018 1A68     		ldr	r2, [r3]
  58 001a 7B68     		ldr	r3, [r7, #4]
  59 001c 1344     		add	r3, r3, r2
  60              		.loc 1 31 30 discriminator 1
  61 001e 0D4A     		ldr	r2, .L5+8
  62 0020 9342     		cmp	r3, r2
  63 0022 02D9     		bls	.L3
  64              	.L2:
  32:../Firmware/CMSIS/GD/GD32F30x/Source/syscalls.c ****     return NULL - 1;
  65              		.loc 1 32 17
  66 0024 4FF0FF33 		mov	r3, #-1
  67 0028 0AE0     		b	.L4
  68              	.L3:
  33:../Firmware/CMSIS/GD/GD32F30x/Source/syscalls.c **** 
  34:../Firmware/CMSIS/GD/GD32F30x/Source/syscalls.c ****   curbrk += incr;
  69              		.loc 1 34 10
  70 002a 084B     		ldr	r3, .L5
  71 002c 1A68     		ldr	r2, [r3]
  72 002e 7B68     		ldr	r3, [r7, #4]
  73 0030 1344     		add	r3, r3, r2
  74 0032 064A     		ldr	r2, .L5
  75 0034 1360     		str	r3, [r2]
  35:../Firmware/CMSIS/GD/GD32F30x/Source/syscalls.c ****   return curbrk - incr;
  76              		.loc 1 35 17
  77 0036 054B     		ldr	r3, .L5
  78 0038 1A68     		ldr	r2, [r3]
  79 003a 7B68     		ldr	r3, [r7, #4]
  80 003c 5B42     		rsbs	r3, r3, #0
  81 003e 1344     		add	r3, r3, r2
  82              	.L4:
  36:../Firmware/CMSIS/GD/GD32F30x/Source/syscalls.c **** }
  83              		.loc 1 36 1
  84 0040 1846     		mov	r0, r3
  85 0042 0C37     		adds	r7, r7, #12
  86              		.cfi_def_cfa_offset 4
  87 0044 BD46     		mov	sp, r7
  88              		.cfi_def_cfa_register 13
  89              		@ sp needed
  90 0046 80BC     		pop	{r7}
  91              		.cfi_restore 7
  92              		.cfi_def_cfa_offset 0
  93 0048 7047     		bx	lr
  94              	.L6:
  95 004a 00BF     		.align	2
  96              	.L5:
  97 004c 00000000 		.word	curbrk.6120
  98 0050 00000000 		.word	_end
  99 0054 00000000 		.word	_heap_end
 100              		.cfi_endproc
 101              	.LFE25:
 103              		.section	.text._gettimeofday,"ax",%progbits
 104              		.align	1
 105              		.global	_gettimeofday
 106              		.syntax unified
 107              		.thumb
 108              		.thumb_func
 109              		.fpu softvfp
 111              	_gettimeofday:
 112              	.LFB26:
  37:../Firmware/CMSIS/GD/GD32F30x/Source/syscalls.c **** 
  38:../Firmware/CMSIS/GD/GD32F30x/Source/syscalls.c **** /*
  39:../Firmware/CMSIS/GD/GD32F30x/Source/syscalls.c ****  * _gettimeofday primitive (Stub function)
  40:../Firmware/CMSIS/GD/GD32F30x/Source/syscalls.c ****  * */
  41:../Firmware/CMSIS/GD/GD32F30x/Source/syscalls.c **** int _gettimeofday (struct timeval * tp, struct timezone * tzp)
  42:../Firmware/CMSIS/GD/GD32F30x/Source/syscalls.c **** {
 113              		.loc 1 42 1
 114              		.cfi_startproc
 115              		@ args = 0, pretend = 0, frame = 8
 116              		@ frame_needed = 1, uses_anonymous_args = 0
 117              		@ link register save eliminated.
 118 0000 80B4     		push	{r7}
 119              		.cfi_def_cfa_offset 4
 120              		.cfi_offset 7, -4
 121 0002 83B0     		sub	sp, sp, #12
 122              		.cfi_def_cfa_offset 16
 123 0004 00AF     		add	r7, sp, #0
 124              		.cfi_def_cfa_register 7
 125 0006 7860     		str	r0, [r7, #4]
 126 0008 3960     		str	r1, [r7]
  43:../Firmware/CMSIS/GD/GD32F30x/Source/syscalls.c ****   /* Return fixed data for the timezone.  */
  44:../Firmware/CMSIS/GD/GD32F30x/Source/syscalls.c ****   if (tzp)
 127              		.loc 1 44 6
 128 000a 3B68     		ldr	r3, [r7]
 129 000c 002B     		cmp	r3, #0
 130 000e 05D0     		beq	.L8
  45:../Firmware/CMSIS/GD/GD32F30x/Source/syscalls.c ****     {
  46:../Firmware/CMSIS/GD/GD32F30x/Source/syscalls.c ****       tzp->tz_minuteswest = 0;
 131              		.loc 1 46 27
 132 0010 3B68     		ldr	r3, [r7]
 133 0012 0022     		movs	r2, #0
 134 0014 1A60     		str	r2, [r3]
  47:../Firmware/CMSIS/GD/GD32F30x/Source/syscalls.c ****       tzp->tz_dsttime = 0;
 135              		.loc 1 47 23
 136 0016 3B68     		ldr	r3, [r7]
 137 0018 0022     		movs	r2, #0
 138 001a 5A60     		str	r2, [r3, #4]
 139              	.L8:
  48:../Firmware/CMSIS/GD/GD32F30x/Source/syscalls.c ****     }
  49:../Firmware/CMSIS/GD/GD32F30x/Source/syscalls.c **** 
  50:../Firmware/CMSIS/GD/GD32F30x/Source/syscalls.c ****   return 0;
 140              		.loc 1 50 10
 141 001c 0023     		movs	r3, #0
  51:../Firmware/CMSIS/GD/GD32F30x/Source/syscalls.c **** }
 142              		.loc 1 51 1
 143 001e 1846     		mov	r0, r3
 144 0020 0C37     		adds	r7, r7, #12
 145              		.cfi_def_cfa_offset 4
 146 0022 BD46     		mov	sp, r7
 147              		.cfi_def_cfa_register 13
 148              		@ sp needed
 149 0024 80BC     		pop	{r7}
 150              		.cfi_restore 7
 151              		.cfi_def_cfa_offset 0
 152 0026 7047     		bx	lr
 153              		.cfi_endproc
 154              	.LFE26:
 156              		.section	.text.initialise_monitor_handles,"ax",%progbits
 157              		.align	1
 158              		.global	initialise_monitor_handles
 159              		.syntax unified
 160              		.thumb
 161              		.thumb_func
 162              		.fpu softvfp
 164              	initialise_monitor_handles:
 165              	.LFB27:
  52:../Firmware/CMSIS/GD/GD32F30x/Source/syscalls.c **** void initialise_monitor_handles()
  53:../Firmware/CMSIS/GD/GD32F30x/Source/syscalls.c **** {
 166              		.loc 1 53 1
 167              		.cfi_startproc
 168              		@ args = 0, pretend = 0, frame = 0
 169              		@ frame_needed = 1, uses_anonymous_args = 0
 170              		@ link register save eliminated.
 171 0000 80B4     		push	{r7}
 172              		.cfi_def_cfa_offset 4
 173              		.cfi_offset 7, -4
 174 0002 00AF     		add	r7, sp, #0
 175              		.cfi_def_cfa_register 7
  54:../Firmware/CMSIS/GD/GD32F30x/Source/syscalls.c **** }
 176              		.loc 1 54 1
 177 0004 00BF     		nop
 178 0006 BD46     		mov	sp, r7
 179              		.cfi_def_cfa_register 13
 180              		@ sp needed
 181 0008 80BC     		pop	{r7}
 182              		.cfi_restore 7
 183              		.cfi_def_cfa_offset 0
 184 000a 7047     		bx	lr
 185              		.cfi_endproc
 186              	.LFE27:
 188              		.section	.text._getpid,"ax",%progbits
 189              		.align	1
 190              		.global	_getpid
 191              		.syntax unified
 192              		.thumb
 193              		.thumb_func
 194              		.fpu softvfp
 196              	_getpid:
 197              	.LFB28:
  55:../Firmware/CMSIS/GD/GD32F30x/Source/syscalls.c **** 
  56:../Firmware/CMSIS/GD/GD32F30x/Source/syscalls.c **** int _getpid(void)
  57:../Firmware/CMSIS/GD/GD32F30x/Source/syscalls.c **** {
 198              		.loc 1 57 1
 199              		.cfi_startproc
 200              		@ args = 0, pretend = 0, frame = 0
 201              		@ frame_needed = 1, uses_anonymous_args = 0
 202              		@ link register save eliminated.
 203 0000 80B4     		push	{r7}
 204              		.cfi_def_cfa_offset 4
 205              		.cfi_offset 7, -4
 206 0002 00AF     		add	r7, sp, #0
 207              		.cfi_def_cfa_register 7
  58:../Firmware/CMSIS/GD/GD32F30x/Source/syscalls.c **** 	return 1;
 208              		.loc 1 58 9
 209 0004 0123     		movs	r3, #1
  59:../Firmware/CMSIS/GD/GD32F30x/Source/syscalls.c **** }
 210              		.loc 1 59 1
 211 0006 1846     		mov	r0, r3
 212 0008 BD46     		mov	sp, r7
 213              		.cfi_def_cfa_register 13
 214              		@ sp needed
 215 000a 80BC     		pop	{r7}
 216              		.cfi_restore 7
 217              		.cfi_def_cfa_offset 0
 218 000c 7047     		bx	lr
 219              		.cfi_endproc
 220              	.LFE28:
 222              		.section	.text._kill,"ax",%progbits
 223              		.align	1
 224              		.global	_kill
 225              		.syntax unified
 226              		.thumb
 227              		.thumb_func
 228              		.fpu softvfp
 230              	_kill:
 231              	.LFB29:
  60:../Firmware/CMSIS/GD/GD32F30x/Source/syscalls.c **** 
  61:../Firmware/CMSIS/GD/GD32F30x/Source/syscalls.c **** int _kill(int pid, int sig)
  62:../Firmware/CMSIS/GD/GD32F30x/Source/syscalls.c **** {
 232              		.loc 1 62 1
 233              		.cfi_startproc
 234              		@ args = 0, pretend = 0, frame = 8
 235              		@ frame_needed = 1, uses_anonymous_args = 0
 236              		@ link register save eliminated.
 237 0000 80B4     		push	{r7}
 238              		.cfi_def_cfa_offset 4
 239              		.cfi_offset 7, -4
 240 0002 83B0     		sub	sp, sp, #12
 241              		.cfi_def_cfa_offset 16
 242 0004 00AF     		add	r7, sp, #0
 243              		.cfi_def_cfa_register 7
 244 0006 7860     		str	r0, [r7, #4]
 245 0008 3960     		str	r1, [r7]
  63:../Firmware/CMSIS/GD/GD32F30x/Source/syscalls.c **** 	errno = EINVAL;
 246              		.loc 1 63 8
 247 000a 054B     		ldr	r3, .L15
 248 000c 1622     		movs	r2, #22
 249 000e 1A60     		str	r2, [r3]
  64:../Firmware/CMSIS/GD/GD32F30x/Source/syscalls.c **** 	return -1;
 250              		.loc 1 64 9
 251 0010 4FF0FF33 		mov	r3, #-1
  65:../Firmware/CMSIS/GD/GD32F30x/Source/syscalls.c **** }
 252              		.loc 1 65 1
 253 0014 1846     		mov	r0, r3
 254 0016 0C37     		adds	r7, r7, #12
 255              		.cfi_def_cfa_offset 4
 256 0018 BD46     		mov	sp, r7
 257              		.cfi_def_cfa_register 13
 258              		@ sp needed
 259 001a 80BC     		pop	{r7}
 260              		.cfi_restore 7
 261              		.cfi_def_cfa_offset 0
 262 001c 7047     		bx	lr
 263              	.L16:
 264 001e 00BF     		.align	2
 265              	.L15:
 266 0020 00000000 		.word	errno
 267              		.cfi_endproc
 268              	.LFE29:
 270              		.section	.text._exit,"ax",%progbits
 271              		.align	1
 272              		.global	_exit
 273              		.syntax unified
 274              		.thumb
 275              		.thumb_func
 276              		.fpu softvfp
 278              	_exit:
 279              	.LFB30:
  66:../Firmware/CMSIS/GD/GD32F30x/Source/syscalls.c **** 
  67:../Firmware/CMSIS/GD/GD32F30x/Source/syscalls.c **** void _exit (int status)
  68:../Firmware/CMSIS/GD/GD32F30x/Source/syscalls.c **** {
 280              		.loc 1 68 1
 281              		.cfi_startproc
 282              		@ args = 0, pretend = 0, frame = 8
 283              		@ frame_needed = 1, uses_anonymous_args = 0
 284 0000 80B5     		push	{r7, lr}
 285              		.cfi_def_cfa_offset 8
 286              		.cfi_offset 7, -8
 287              		.cfi_offset 14, -4
 288 0002 82B0     		sub	sp, sp, #8
 289              		.cfi_def_cfa_offset 16
 290 0004 00AF     		add	r7, sp, #0
 291              		.cfi_def_cfa_register 7
 292 0006 7860     		str	r0, [r7, #4]
  69:../Firmware/CMSIS/GD/GD32F30x/Source/syscalls.c **** 	_kill(status, -1);
 293              		.loc 1 69 2
 294 0008 4FF0FF31 		mov	r1, #-1
 295 000c 7868     		ldr	r0, [r7, #4]
 296 000e FFF7FEFF 		bl	_kill
 297              	.L18:
  70:../Firmware/CMSIS/GD/GD32F30x/Source/syscalls.c **** 	while (1) {}
 298              		.loc 1 70 8 discriminator 1
 299 0012 FEE7     		b	.L18
 300              		.cfi_endproc
 301              	.LFE30:
 303              		.section	.text._write,"ax",%progbits
 304              		.align	1
 305              		.global	_write
 306              		.syntax unified
 307              		.thumb
 308              		.thumb_func
 309              		.fpu softvfp
 311              	_write:
 312              	.LFB31:
  71:../Firmware/CMSIS/GD/GD32F30x/Source/syscalls.c **** }
  72:../Firmware/CMSIS/GD/GD32F30x/Source/syscalls.c **** 
  73:../Firmware/CMSIS/GD/GD32F30x/Source/syscalls.c **** int _write(int file, char *ptr, int len)
  74:../Firmware/CMSIS/GD/GD32F30x/Source/syscalls.c **** {
 313              		.loc 1 74 1
 314              		.cfi_startproc
 315              		@ args = 0, pretend = 0, frame = 24
 316              		@ frame_needed = 1, uses_anonymous_args = 0
 317 0000 80B5     		push	{r7, lr}
 318              		.cfi_def_cfa_offset 8
 319              		.cfi_offset 7, -8
 320              		.cfi_offset 14, -4
 321 0002 86B0     		sub	sp, sp, #24
 322              		.cfi_def_cfa_offset 32
 323 0004 00AF     		add	r7, sp, #0
 324              		.cfi_def_cfa_register 7
 325 0006 F860     		str	r0, [r7, #12]
 326 0008 B960     		str	r1, [r7, #8]
 327 000a 7A60     		str	r2, [r7, #4]
  75:../Firmware/CMSIS/GD/GD32F30x/Source/syscalls.c **** 	int DataIdx;
  76:../Firmware/CMSIS/GD/GD32F30x/Source/syscalls.c **** 
  77:../Firmware/CMSIS/GD/GD32F30x/Source/syscalls.c **** 		for (DataIdx = 0; DataIdx < len; DataIdx++)
 328              		.loc 1 77 16
 329 000c 0023     		movs	r3, #0
 330 000e 7B61     		str	r3, [r7, #20]
 331              		.loc 1 77 3
 332 0010 0AE0     		b	.L20
 333              	.L21:
  78:../Firmware/CMSIS/GD/GD32F30x/Source/syscalls.c **** 		{
  79:../Firmware/CMSIS/GD/GD32F30x/Source/syscalls.c **** 		   __io_putchar( *ptr++ );
 334              		.loc 1 79 24 discriminator 3
 335 0012 BB68     		ldr	r3, [r7, #8]
 336 0014 5A1C     		adds	r2, r3, #1
 337 0016 BA60     		str	r2, [r7, #8]
 338              		.loc 1 79 20 discriminator 3
 339 0018 93F90030 		ldrsb	r3, [r3]
 340              		.loc 1 79 6 discriminator 3
 341 001c 1846     		mov	r0, r3
 342 001e FFF7FEFF 		bl	__io_putchar
  77:../Firmware/CMSIS/GD/GD32F30x/Source/syscalls.c **** 		{
 343              		.loc 1 77 43 discriminator 3
 344 0022 7B69     		ldr	r3, [r7, #20]
 345 0024 0133     		adds	r3, r3, #1
 346 0026 7B61     		str	r3, [r7, #20]
 347              	.L20:
  77:../Firmware/CMSIS/GD/GD32F30x/Source/syscalls.c **** 		{
 348              		.loc 1 77 3 discriminator 1
 349 0028 7A69     		ldr	r2, [r7, #20]
 350 002a 7B68     		ldr	r3, [r7, #4]
 351 002c 9A42     		cmp	r2, r3
 352 002e F0DB     		blt	.L21
  80:../Firmware/CMSIS/GD/GD32F30x/Source/syscalls.c **** 		}
  81:../Firmware/CMSIS/GD/GD32F30x/Source/syscalls.c **** 	return len;
 353              		.loc 1 81 9
 354 0030 7B68     		ldr	r3, [r7, #4]
  82:../Firmware/CMSIS/GD/GD32F30x/Source/syscalls.c **** }
 355              		.loc 1 82 1
 356 0032 1846     		mov	r0, r3
 357 0034 1837     		adds	r7, r7, #24
 358              		.cfi_def_cfa_offset 8
 359 0036 BD46     		mov	sp, r7
 360              		.cfi_def_cfa_register 13
 361              		@ sp needed
 362 0038 80BD     		pop	{r7, pc}
 363              		.cfi_endproc
 364              	.LFE31:
 366              		.section	.text._close,"ax",%progbits
 367              		.align	1
 368              		.global	_close
 369              		.syntax unified
 370              		.thumb
 371              		.thumb_func
 372              		.fpu softvfp
 374              	_close:
 375              	.LFB32:
  83:../Firmware/CMSIS/GD/GD32F30x/Source/syscalls.c **** 
  84:../Firmware/CMSIS/GD/GD32F30x/Source/syscalls.c **** int _close(int file)
  85:../Firmware/CMSIS/GD/GD32F30x/Source/syscalls.c **** {
 376              		.loc 1 85 1
 377              		.cfi_startproc
 378              		@ args = 0, pretend = 0, frame = 8
 379              		@ frame_needed = 1, uses_anonymous_args = 0
 380              		@ link register save eliminated.
 381 0000 80B4     		push	{r7}
 382              		.cfi_def_cfa_offset 4
 383              		.cfi_offset 7, -4
 384 0002 83B0     		sub	sp, sp, #12
 385              		.cfi_def_cfa_offset 16
 386 0004 00AF     		add	r7, sp, #0
 387              		.cfi_def_cfa_register 7
 388 0006 7860     		str	r0, [r7, #4]
  86:../Firmware/CMSIS/GD/GD32F30x/Source/syscalls.c **** 	return -1;
 389              		.loc 1 86 9
 390 0008 4FF0FF33 		mov	r3, #-1
  87:../Firmware/CMSIS/GD/GD32F30x/Source/syscalls.c **** }
 391              		.loc 1 87 1
 392 000c 1846     		mov	r0, r3
 393 000e 0C37     		adds	r7, r7, #12
 394              		.cfi_def_cfa_offset 4
 395 0010 BD46     		mov	sp, r7
 396              		.cfi_def_cfa_register 13
 397              		@ sp needed
 398 0012 80BC     		pop	{r7}
 399              		.cfi_restore 7
 400              		.cfi_def_cfa_offset 0
 401 0014 7047     		bx	lr
 402              		.cfi_endproc
 403              	.LFE32:
 405              		.section	.text._fstat,"ax",%progbits
 406              		.align	1
 407              		.global	_fstat
 408              		.syntax unified
 409              		.thumb
 410              		.thumb_func
 411              		.fpu softvfp
 413              	_fstat:
 414              	.LFB33:
  88:../Firmware/CMSIS/GD/GD32F30x/Source/syscalls.c **** 
  89:../Firmware/CMSIS/GD/GD32F30x/Source/syscalls.c **** int _fstat(int file, struct stat *st)
  90:../Firmware/CMSIS/GD/GD32F30x/Source/syscalls.c **** {
 415              		.loc 1 90 1
 416              		.cfi_startproc
 417              		@ args = 0, pretend = 0, frame = 8
 418              		@ frame_needed = 1, uses_anonymous_args = 0
 419              		@ link register save eliminated.
 420 0000 80B4     		push	{r7}
 421              		.cfi_def_cfa_offset 4
 422              		.cfi_offset 7, -4
 423 0002 83B0     		sub	sp, sp, #12
 424              		.cfi_def_cfa_offset 16
 425 0004 00AF     		add	r7, sp, #0
 426              		.cfi_def_cfa_register 7
 427 0006 7860     		str	r0, [r7, #4]
 428 0008 3960     		str	r1, [r7]
  91:../Firmware/CMSIS/GD/GD32F30x/Source/syscalls.c **** 	st->st_mode = S_IFCHR;
 429              		.loc 1 91 14
 430 000a 3B68     		ldr	r3, [r7]
 431 000c 4FF40052 		mov	r2, #8192
 432 0010 5A60     		str	r2, [r3, #4]
  92:../Firmware/CMSIS/GD/GD32F30x/Source/syscalls.c **** 	return 0;
 433              		.loc 1 92 9
 434 0012 0023     		movs	r3, #0
  93:../Firmware/CMSIS/GD/GD32F30x/Source/syscalls.c **** }
 435              		.loc 1 93 1
 436 0014 1846     		mov	r0, r3
 437 0016 0C37     		adds	r7, r7, #12
 438              		.cfi_def_cfa_offset 4
 439 0018 BD46     		mov	sp, r7
 440              		.cfi_def_cfa_register 13
 441              		@ sp needed
 442 001a 80BC     		pop	{r7}
 443              		.cfi_restore 7
 444              		.cfi_def_cfa_offset 0
 445 001c 7047     		bx	lr
 446              		.cfi_endproc
 447              	.LFE33:
 449              		.section	.text._isatty,"ax",%progbits
 450              		.align	1
 451              		.global	_isatty
 452              		.syntax unified
 453              		.thumb
 454              		.thumb_func
 455              		.fpu softvfp
 457              	_isatty:
 458              	.LFB34:
  94:../Firmware/CMSIS/GD/GD32F30x/Source/syscalls.c **** 
  95:../Firmware/CMSIS/GD/GD32F30x/Source/syscalls.c **** int _isatty(int file)
  96:../Firmware/CMSIS/GD/GD32F30x/Source/syscalls.c **** {
 459              		.loc 1 96 1
 460              		.cfi_startproc
 461              		@ args = 0, pretend = 0, frame = 8
 462              		@ frame_needed = 1, uses_anonymous_args = 0
 463              		@ link register save eliminated.
 464 0000 80B4     		push	{r7}
 465              		.cfi_def_cfa_offset 4
 466              		.cfi_offset 7, -4
 467 0002 83B0     		sub	sp, sp, #12
 468              		.cfi_def_cfa_offset 16
 469 0004 00AF     		add	r7, sp, #0
 470              		.cfi_def_cfa_register 7
 471 0006 7860     		str	r0, [r7, #4]
  97:../Firmware/CMSIS/GD/GD32F30x/Source/syscalls.c **** 	return 1;
 472              		.loc 1 97 9
 473 0008 0123     		movs	r3, #1
  98:../Firmware/CMSIS/GD/GD32F30x/Source/syscalls.c **** }
 474              		.loc 1 98 1
 475 000a 1846     		mov	r0, r3
 476 000c 0C37     		adds	r7, r7, #12
 477              		.cfi_def_cfa_offset 4
 478 000e BD46     		mov	sp, r7
 479              		.cfi_def_cfa_register 13
 480              		@ sp needed
 481 0010 80BC     		pop	{r7}
 482              		.cfi_restore 7
 483              		.cfi_def_cfa_offset 0
 484 0012 7047     		bx	lr
 485              		.cfi_endproc
 486              	.LFE34:
 488              		.section	.text._lseek,"ax",%progbits
 489              		.align	1
 490              		.global	_lseek
 491              		.syntax unified
 492              		.thumb
 493              		.thumb_func
 494              		.fpu softvfp
 496              	_lseek:
 497              	.LFB35:
  99:../Firmware/CMSIS/GD/GD32F30x/Source/syscalls.c **** 
 100:../Firmware/CMSIS/GD/GD32F30x/Source/syscalls.c **** int _lseek(int file, int ptr, int dir)
 101:../Firmware/CMSIS/GD/GD32F30x/Source/syscalls.c **** {
 498              		.loc 1 101 1
 499              		.cfi_startproc
 500              		@ args = 0, pretend = 0, frame = 16
 501              		@ frame_needed = 1, uses_anonymous_args = 0
 502              		@ link register save eliminated.
 503 0000 80B4     		push	{r7}
 504              		.cfi_def_cfa_offset 4
 505              		.cfi_offset 7, -4
 506 0002 85B0     		sub	sp, sp, #20
 507              		.cfi_def_cfa_offset 24
 508 0004 00AF     		add	r7, sp, #0
 509              		.cfi_def_cfa_register 7
 510 0006 F860     		str	r0, [r7, #12]
 511 0008 B960     		str	r1, [r7, #8]
 512 000a 7A60     		str	r2, [r7, #4]
 102:../Firmware/CMSIS/GD/GD32F30x/Source/syscalls.c **** 	return 0;
 513              		.loc 1 102 9
 514 000c 0023     		movs	r3, #0
 103:../Firmware/CMSIS/GD/GD32F30x/Source/syscalls.c **** }
 515              		.loc 1 103 1
 516 000e 1846     		mov	r0, r3
 517 0010 1437     		adds	r7, r7, #20
 518              		.cfi_def_cfa_offset 4
 519 0012 BD46     		mov	sp, r7
 520              		.cfi_def_cfa_register 13
 521              		@ sp needed
 522 0014 80BC     		pop	{r7}
 523              		.cfi_restore 7
 524              		.cfi_def_cfa_offset 0
 525 0016 7047     		bx	lr
 526              		.cfi_endproc
 527              	.LFE35:
 529              		.section	.text._read,"ax",%progbits
 530              		.align	1
 531              		.global	_read
 532              		.syntax unified
 533              		.thumb
 534              		.thumb_func
 535              		.fpu softvfp
 537              	_read:
 538              	.LFB36:
 104:../Firmware/CMSIS/GD/GD32F30x/Source/syscalls.c **** 
 105:../Firmware/CMSIS/GD/GD32F30x/Source/syscalls.c **** int _read(int file, char *ptr, int len)
 106:../Firmware/CMSIS/GD/GD32F30x/Source/syscalls.c **** {
 539              		.loc 1 106 1
 540              		.cfi_startproc
 541              		@ args = 0, pretend = 0, frame = 24
 542              		@ frame_needed = 1, uses_anonymous_args = 0
 543 0000 80B5     		push	{r7, lr}
 544              		.cfi_def_cfa_offset 8
 545              		.cfi_offset 7, -8
 546              		.cfi_offset 14, -4
 547 0002 86B0     		sub	sp, sp, #24
 548              		.cfi_def_cfa_offset 32
 549 0004 00AF     		add	r7, sp, #0
 550              		.cfi_def_cfa_register 7
 551 0006 F860     		str	r0, [r7, #12]
 552 0008 B960     		str	r1, [r7, #8]
 553 000a 7A60     		str	r2, [r7, #4]
 107:../Firmware/CMSIS/GD/GD32F30x/Source/syscalls.c **** 	int DataIdx;
 108:../Firmware/CMSIS/GD/GD32F30x/Source/syscalls.c **** 
 109:../Firmware/CMSIS/GD/GD32F30x/Source/syscalls.c **** 	for (DataIdx = 0; DataIdx < len; DataIdx++)
 554              		.loc 1 109 15
 555 000c 0023     		movs	r3, #0
 556 000e 7B61     		str	r3, [r7, #20]
 557              		.loc 1 109 2
 558 0010 0AE0     		b	.L32
 559              	.L33:
 110:../Firmware/CMSIS/GD/GD32F30x/Source/syscalls.c **** 	{
 111:../Firmware/CMSIS/GD/GD32F30x/Source/syscalls.c **** 	  *ptr++ = __io_getchar();
 560              		.loc 1 111 13 discriminator 3
 561 0012 FFF7FEFF 		bl	__io_getchar
 562 0016 0146     		mov	r1, r0
 563              		.loc 1 111 8 discriminator 3
 564 0018 BB68     		ldr	r3, [r7, #8]
 565 001a 5A1C     		adds	r2, r3, #1
 566 001c BA60     		str	r2, [r7, #8]
 567              		.loc 1 111 11 discriminator 3
 568 001e 4AB2     		sxtb	r2, r1
 569 0020 1A70     		strb	r2, [r3]
 109:../Firmware/CMSIS/GD/GD32F30x/Source/syscalls.c **** 	{
 570              		.loc 1 109 42 discriminator 3
 571 0022 7B69     		ldr	r3, [r7, #20]
 572 0024 0133     		adds	r3, r3, #1
 573 0026 7B61     		str	r3, [r7, #20]
 574              	.L32:
 109:../Firmware/CMSIS/GD/GD32F30x/Source/syscalls.c **** 	{
 575              		.loc 1 109 2 discriminator 1
 576 0028 7A69     		ldr	r2, [r7, #20]
 577 002a 7B68     		ldr	r3, [r7, #4]
 578 002c 9A42     		cmp	r2, r3
 579 002e F0DB     		blt	.L33
 112:../Firmware/CMSIS/GD/GD32F30x/Source/syscalls.c **** 	}
 113:../Firmware/CMSIS/GD/GD32F30x/Source/syscalls.c **** 
 114:../Firmware/CMSIS/GD/GD32F30x/Source/syscalls.c ****    return len;
 580              		.loc 1 114 11
 581 0030 7B68     		ldr	r3, [r7, #4]
 115:../Firmware/CMSIS/GD/GD32F30x/Source/syscalls.c **** }
 582              		.loc 1 115 1
 583 0032 1846     		mov	r0, r3
 584 0034 1837     		adds	r7, r7, #24
 585              		.cfi_def_cfa_offset 8
 586 0036 BD46     		mov	sp, r7
 587              		.cfi_def_cfa_register 13
 588              		@ sp needed
 589 0038 80BD     		pop	{r7, pc}
 590              		.cfi_endproc
 591              	.LFE36:
 593              		.section	.text._open,"ax",%progbits
 594              		.align	1
 595              		.global	_open
 596              		.syntax unified
 597              		.thumb
 598              		.thumb_func
 599              		.fpu softvfp
 601              	_open:
 602              	.LFB37:
 116:../Firmware/CMSIS/GD/GD32F30x/Source/syscalls.c **** 
 117:../Firmware/CMSIS/GD/GD32F30x/Source/syscalls.c **** int _open(char *path, int flags, ...)
 118:../Firmware/CMSIS/GD/GD32F30x/Source/syscalls.c **** {
 603              		.loc 1 118 1
 604              		.cfi_startproc
 605              		@ args = 4, pretend = 12, frame = 8
 606              		@ frame_needed = 1, uses_anonymous_args = 1
 607              		@ link register save eliminated.
 608 0000 0EB4     		push	{r1, r2, r3}
 609              		.cfi_def_cfa_offset 12
 610              		.cfi_offset 1, -12
 611              		.cfi_offset 2, -8
 612              		.cfi_offset 3, -4
 613 0002 80B4     		push	{r7}
 614              		.cfi_def_cfa_offset 16
 615              		.cfi_offset 7, -16
 616 0004 82B0     		sub	sp, sp, #8
 617              		.cfi_def_cfa_offset 24
 618 0006 00AF     		add	r7, sp, #0
 619              		.cfi_def_cfa_register 7
 620 0008 7860     		str	r0, [r7, #4]
 119:../Firmware/CMSIS/GD/GD32F30x/Source/syscalls.c **** 	/* Pretend like we always fail */
 120:../Firmware/CMSIS/GD/GD32F30x/Source/syscalls.c **** 	return -1;
 621              		.loc 1 120 9
 622 000a 4FF0FF33 		mov	r3, #-1
 121:../Firmware/CMSIS/GD/GD32F30x/Source/syscalls.c **** }
 623              		.loc 1 121 1
 624 000e 1846     		mov	r0, r3
 625 0010 0837     		adds	r7, r7, #8
 626              		.cfi_def_cfa_offset 16
 627 0012 BD46     		mov	sp, r7
 628              		.cfi_def_cfa_register 13
 629              		@ sp needed
 630 0014 80BC     		pop	{r7}
 631              		.cfi_restore 7
 632              		.cfi_def_cfa_offset 12
 633 0016 03B0     		add	sp, sp, #12
 634              		.cfi_restore 3
 635              		.cfi_restore 2
 636              		.cfi_restore 1
 637              		.cfi_def_cfa_offset 0
 638 0018 7047     		bx	lr
 639              		.cfi_endproc
 640              	.LFE37:
 642              		.section	.text._wait,"ax",%progbits
 643              		.align	1
 644              		.global	_wait
 645              		.syntax unified
 646              		.thumb
 647              		.thumb_func
 648              		.fpu softvfp
 650              	_wait:
 651              	.LFB38:
 122:../Firmware/CMSIS/GD/GD32F30x/Source/syscalls.c **** 
 123:../Firmware/CMSIS/GD/GD32F30x/Source/syscalls.c **** int _wait(int *status)
 124:../Firmware/CMSIS/GD/GD32F30x/Source/syscalls.c **** {
 652              		.loc 1 124 1
 653              		.cfi_startproc
 654              		@ args = 0, pretend = 0, frame = 8
 655              		@ frame_needed = 1, uses_anonymous_args = 0
 656              		@ link register save eliminated.
 657 0000 80B4     		push	{r7}
 658              		.cfi_def_cfa_offset 4
 659              		.cfi_offset 7, -4
 660 0002 83B0     		sub	sp, sp, #12
 661              		.cfi_def_cfa_offset 16
 662 0004 00AF     		add	r7, sp, #0
 663              		.cfi_def_cfa_register 7
 664 0006 7860     		str	r0, [r7, #4]
 125:../Firmware/CMSIS/GD/GD32F30x/Source/syscalls.c **** 	errno = ECHILD;
 665              		.loc 1 125 8
 666 0008 044B     		ldr	r3, .L39
 667 000a 0A22     		movs	r2, #10
 668 000c 1A60     		str	r2, [r3]
 126:../Firmware/CMSIS/GD/GD32F30x/Source/syscalls.c **** 	return -1;
 669              		.loc 1 126 9
 670 000e 4FF0FF33 		mov	r3, #-1
 127:../Firmware/CMSIS/GD/GD32F30x/Source/syscalls.c **** }
 671              		.loc 1 127 1
 672 0012 1846     		mov	r0, r3
 673 0014 0C37     		adds	r7, r7, #12
 674              		.cfi_def_cfa_offset 4
 675 0016 BD46     		mov	sp, r7
 676              		.cfi_def_cfa_register 13
 677              		@ sp needed
 678 0018 80BC     		pop	{r7}
 679              		.cfi_restore 7
 680              		.cfi_def_cfa_offset 0
 681 001a 7047     		bx	lr
 682              	.L40:
 683              		.align	2
 684              	.L39:
 685 001c 00000000 		.word	errno
 686              		.cfi_endproc
 687              	.LFE38:
 689              		.section	.text._unlink,"ax",%progbits
 690              		.align	1
 691              		.global	_unlink
 692              		.syntax unified
 693              		.thumb
 694              		.thumb_func
 695              		.fpu softvfp
 697              	_unlink:
 698              	.LFB39:
 128:../Firmware/CMSIS/GD/GD32F30x/Source/syscalls.c **** 
 129:../Firmware/CMSIS/GD/GD32F30x/Source/syscalls.c **** int _unlink(char *name)
 130:../Firmware/CMSIS/GD/GD32F30x/Source/syscalls.c **** {
 699              		.loc 1 130 1
 700              		.cfi_startproc
 701              		@ args = 0, pretend = 0, frame = 8
 702              		@ frame_needed = 1, uses_anonymous_args = 0
 703              		@ link register save eliminated.
 704 0000 80B4     		push	{r7}
 705              		.cfi_def_cfa_offset 4
 706              		.cfi_offset 7, -4
 707 0002 83B0     		sub	sp, sp, #12
 708              		.cfi_def_cfa_offset 16
 709 0004 00AF     		add	r7, sp, #0
 710              		.cfi_def_cfa_register 7
 711 0006 7860     		str	r0, [r7, #4]
 131:../Firmware/CMSIS/GD/GD32F30x/Source/syscalls.c **** 	errno = ENOENT;
 712              		.loc 1 131 8
 713 0008 044B     		ldr	r3, .L43
 714 000a 0222     		movs	r2, #2
 715 000c 1A60     		str	r2, [r3]
 132:../Firmware/CMSIS/GD/GD32F30x/Source/syscalls.c **** 	return -1;
 716              		.loc 1 132 9
 717 000e 4FF0FF33 		mov	r3, #-1
 133:../Firmware/CMSIS/GD/GD32F30x/Source/syscalls.c **** }
 718              		.loc 1 133 1
 719 0012 1846     		mov	r0, r3
 720 0014 0C37     		adds	r7, r7, #12
 721              		.cfi_def_cfa_offset 4
 722 0016 BD46     		mov	sp, r7
 723              		.cfi_def_cfa_register 13
 724              		@ sp needed
 725 0018 80BC     		pop	{r7}
 726              		.cfi_restore 7
 727              		.cfi_def_cfa_offset 0
 728 001a 7047     		bx	lr
 729              	.L44:
 730              		.align	2
 731              	.L43:
 732 001c 00000000 		.word	errno
 733              		.cfi_endproc
 734              	.LFE39:
 736              		.section	.text._times,"ax",%progbits
 737              		.align	1
 738              		.global	_times
 739              		.syntax unified
 740              		.thumb
 741              		.thumb_func
 742              		.fpu softvfp
 744              	_times:
 745              	.LFB40:
 134:../Firmware/CMSIS/GD/GD32F30x/Source/syscalls.c **** 
 135:../Firmware/CMSIS/GD/GD32F30x/Source/syscalls.c **** int _times(struct tms *buf)
 136:../Firmware/CMSIS/GD/GD32F30x/Source/syscalls.c **** {
 746              		.loc 1 136 1
 747              		.cfi_startproc
 748              		@ args = 0, pretend = 0, frame = 8
 749              		@ frame_needed = 1, uses_anonymous_args = 0
 750              		@ link register save eliminated.
 751 0000 80B4     		push	{r7}
 752              		.cfi_def_cfa_offset 4
 753              		.cfi_offset 7, -4
 754 0002 83B0     		sub	sp, sp, #12
 755              		.cfi_def_cfa_offset 16
 756 0004 00AF     		add	r7, sp, #0
 757              		.cfi_def_cfa_register 7
 758 0006 7860     		str	r0, [r7, #4]
 137:../Firmware/CMSIS/GD/GD32F30x/Source/syscalls.c **** 	return -1;
 759              		.loc 1 137 9
 760 0008 4FF0FF33 		mov	r3, #-1
 138:../Firmware/CMSIS/GD/GD32F30x/Source/syscalls.c **** }
 761              		.loc 1 138 1
 762 000c 1846     		mov	r0, r3
 763 000e 0C37     		adds	r7, r7, #12
 764              		.cfi_def_cfa_offset 4
 765 0010 BD46     		mov	sp, r7
 766              		.cfi_def_cfa_register 13
 767              		@ sp needed
 768 0012 80BC     		pop	{r7}
 769              		.cfi_restore 7
 770              		.cfi_def_cfa_offset 0
 771 0014 7047     		bx	lr
 772              		.cfi_endproc
 773              	.LFE40:
 775              		.section	.text._stat,"ax",%progbits
 776              		.align	1
 777              		.global	_stat
 778              		.syntax unified
 779              		.thumb
 780              		.thumb_func
 781              		.fpu softvfp
 783              	_stat:
 784              	.LFB41:
 139:../Firmware/CMSIS/GD/GD32F30x/Source/syscalls.c **** 
 140:../Firmware/CMSIS/GD/GD32F30x/Source/syscalls.c **** int _stat(char *file, struct stat *st)
 141:../Firmware/CMSIS/GD/GD32F30x/Source/syscalls.c **** {
 785              		.loc 1 141 1
 786              		.cfi_startproc
 787              		@ args = 0, pretend = 0, frame = 8
 788              		@ frame_needed = 1, uses_anonymous_args = 0
 789              		@ link register save eliminated.
 790 0000 80B4     		push	{r7}
 791              		.cfi_def_cfa_offset 4
 792              		.cfi_offset 7, -4
 793 0002 83B0     		sub	sp, sp, #12
 794              		.cfi_def_cfa_offset 16
 795 0004 00AF     		add	r7, sp, #0
 796              		.cfi_def_cfa_register 7
 797 0006 7860     		str	r0, [r7, #4]
 798 0008 3960     		str	r1, [r7]
 142:../Firmware/CMSIS/GD/GD32F30x/Source/syscalls.c **** 	st->st_mode = S_IFCHR;
 799              		.loc 1 142 14
 800 000a 3B68     		ldr	r3, [r7]
 801 000c 4FF40052 		mov	r2, #8192
 802 0010 5A60     		str	r2, [r3, #4]
 143:../Firmware/CMSIS/GD/GD32F30x/Source/syscalls.c **** 	return 0;
 803              		.loc 1 143 9
 804 0012 0023     		movs	r3, #0
 144:../Firmware/CMSIS/GD/GD32F30x/Source/syscalls.c **** }
 805              		.loc 1 144 1
 806 0014 1846     		mov	r0, r3
 807 0016 0C37     		adds	r7, r7, #12
 808              		.cfi_def_cfa_offset 4
 809 0018 BD46     		mov	sp, r7
 810              		.cfi_def_cfa_register 13
 811              		@ sp needed
 812 001a 80BC     		pop	{r7}
 813              		.cfi_restore 7
 814              		.cfi_def_cfa_offset 0
 815 001c 7047     		bx	lr
 816              		.cfi_endproc
 817              	.LFE41:
 819              		.section	.text._link,"ax",%progbits
 820              		.align	1
 821              		.global	_link
 822              		.syntax unified
 823              		.thumb
 824              		.thumb_func
 825              		.fpu softvfp
 827              	_link:
 828              	.LFB42:
 145:../Firmware/CMSIS/GD/GD32F30x/Source/syscalls.c **** 
 146:../Firmware/CMSIS/GD/GD32F30x/Source/syscalls.c **** int _link(char *old, char *new)
 147:../Firmware/CMSIS/GD/GD32F30x/Source/syscalls.c **** {
 829              		.loc 1 147 1
 830              		.cfi_startproc
 831              		@ args = 0, pretend = 0, frame = 8
 832              		@ frame_needed = 1, uses_anonymous_args = 0
 833              		@ link register save eliminated.
 834 0000 80B4     		push	{r7}
 835              		.cfi_def_cfa_offset 4
 836              		.cfi_offset 7, -4
 837 0002 83B0     		sub	sp, sp, #12
 838              		.cfi_def_cfa_offset 16
 839 0004 00AF     		add	r7, sp, #0
 840              		.cfi_def_cfa_register 7
 841 0006 7860     		str	r0, [r7, #4]
 842 0008 3960     		str	r1, [r7]
 148:../Firmware/CMSIS/GD/GD32F30x/Source/syscalls.c **** 	errno = EMLINK;
 843              		.loc 1 148 8
 844 000a 054B     		ldr	r3, .L51
 845 000c 1F22     		movs	r2, #31
 846 000e 1A60     		str	r2, [r3]
 149:../Firmware/CMSIS/GD/GD32F30x/Source/syscalls.c **** 	return -1;
 847              		.loc 1 149 9
 848 0010 4FF0FF33 		mov	r3, #-1
 150:../Firmware/CMSIS/GD/GD32F30x/Source/syscalls.c **** }
 849              		.loc 1 150 1
 850 0014 1846     		mov	r0, r3
 851 0016 0C37     		adds	r7, r7, #12
 852              		.cfi_def_cfa_offset 4
 853 0018 BD46     		mov	sp, r7
 854              		.cfi_def_cfa_register 13
 855              		@ sp needed
 856 001a 80BC     		pop	{r7}
 857              		.cfi_restore 7
 858              		.cfi_def_cfa_offset 0
 859 001c 7047     		bx	lr
 860              	.L52:
 861 001e 00BF     		.align	2
 862              	.L51:
 863 0020 00000000 		.word	errno
 864              		.cfi_endproc
 865              	.LFE42:
 867              		.section	.text._fork,"ax",%progbits
 868              		.align	1
 869              		.global	_fork
 870              		.syntax unified
 871              		.thumb
 872              		.thumb_func
 873              		.fpu softvfp
 875              	_fork:
 876              	.LFB43:
 151:../Firmware/CMSIS/GD/GD32F30x/Source/syscalls.c **** 
 152:../Firmware/CMSIS/GD/GD32F30x/Source/syscalls.c **** int _fork(void)
 153:../Firmware/CMSIS/GD/GD32F30x/Source/syscalls.c **** {
 877              		.loc 1 153 1
 878              		.cfi_startproc
 879              		@ args = 0, pretend = 0, frame = 0
 880              		@ frame_needed = 1, uses_anonymous_args = 0
 881              		@ link register save eliminated.
 882 0000 80B4     		push	{r7}
 883              		.cfi_def_cfa_offset 4
 884              		.cfi_offset 7, -4
 885 0002 00AF     		add	r7, sp, #0
 886              		.cfi_def_cfa_register 7
 154:../Firmware/CMSIS/GD/GD32F30x/Source/syscalls.c **** 	errno = EAGAIN;
 887              		.loc 1 154 8
 888 0004 044B     		ldr	r3, .L55
 889 0006 0B22     		movs	r2, #11
 890 0008 1A60     		str	r2, [r3]
 155:../Firmware/CMSIS/GD/GD32F30x/Source/syscalls.c **** 	return -1;
 891              		.loc 1 155 9
 892 000a 4FF0FF33 		mov	r3, #-1
 156:../Firmware/CMSIS/GD/GD32F30x/Source/syscalls.c **** }
 893              		.loc 1 156 1
 894 000e 1846     		mov	r0, r3
 895 0010 BD46     		mov	sp, r7
 896              		.cfi_def_cfa_register 13
 897              		@ sp needed
 898 0012 80BC     		pop	{r7}
 899              		.cfi_restore 7
 900              		.cfi_def_cfa_offset 0
 901 0014 7047     		bx	lr
 902              	.L56:
 903 0016 00BF     		.align	2
 904              	.L55:
 905 0018 00000000 		.word	errno
 906              		.cfi_endproc
 907              	.LFE43:
 909              		.section	.text._execve,"ax",%progbits
 910              		.align	1
 911              		.global	_execve
 912              		.syntax unified
 913              		.thumb
 914              		.thumb_func
 915              		.fpu softvfp
 917              	_execve:
 918              	.LFB44:
 157:../Firmware/CMSIS/GD/GD32F30x/Source/syscalls.c **** 
 158:../Firmware/CMSIS/GD/GD32F30x/Source/syscalls.c **** int _execve(char *name, char **argv, char **env)
 159:../Firmware/CMSIS/GD/GD32F30x/Source/syscalls.c **** {
 919              		.loc 1 159 1
 920              		.cfi_startproc
 921              		@ args = 0, pretend = 0, frame = 16
 922              		@ frame_needed = 1, uses_anonymous_args = 0
 923              		@ link register save eliminated.
 924 0000 80B4     		push	{r7}
 925              		.cfi_def_cfa_offset 4
 926              		.cfi_offset 7, -4
 927 0002 85B0     		sub	sp, sp, #20
 928              		.cfi_def_cfa_offset 24
 929 0004 00AF     		add	r7, sp, #0
 930              		.cfi_def_cfa_register 7
 931 0006 F860     		str	r0, [r7, #12]
 932 0008 B960     		str	r1, [r7, #8]
 933 000a 7A60     		str	r2, [r7, #4]
 160:../Firmware/CMSIS/GD/GD32F30x/Source/syscalls.c **** 	errno = ENOMEM;
 934              		.loc 1 160 8
 935 000c 044B     		ldr	r3, .L59
 936 000e 0C22     		movs	r2, #12
 937 0010 1A60     		str	r2, [r3]
 161:../Firmware/CMSIS/GD/GD32F30x/Source/syscalls.c **** 	return -1;
 938              		.loc 1 161 9
 939 0012 4FF0FF33 		mov	r3, #-1
 162:../Firmware/CMSIS/GD/GD32F30x/Source/syscalls.c **** }
 940              		.loc 1 162 1
 941 0016 1846     		mov	r0, r3
 942 0018 1437     		adds	r7, r7, #20
 943              		.cfi_def_cfa_offset 4
 944 001a BD46     		mov	sp, r7
 945              		.cfi_def_cfa_register 13
 946              		@ sp needed
 947 001c 80BC     		pop	{r7}
 948              		.cfi_restore 7
 949              		.cfi_def_cfa_offset 0
 950 001e 7047     		bx	lr
 951              	.L60:
 952              		.align	2
 953              	.L59:
 954 0020 00000000 		.word	errno
 955              		.cfi_endproc
 956              	.LFE44:
 958              		.weak	__io_getchar
 959              		.weak	__io_putchar
 960              		.text
 961              	.Letext0:
 962              		.file 2 "c:\\gd32embeddedbuilder_1.5.3.31964\\gd32embeddedbuilder_1.5.3.31964\\tools\\gnu tools ar
 963              		.file 3 "c:\\gd32embeddedbuilder_1.5.3.31964\\gd32embeddedbuilder_1.5.3.31964\\tools\\gnu tools ar
 964              		.file 4 "c:\\gd32embeddedbuilder_1.5.3.31964\\gd32embeddedbuilder_1.5.3.31964\\tools\\gnu tools ar
 965              		.file 5 "c:\\gd32embeddedbuilder_1.5.3.31964\\gd32embeddedbuilder_1.5.3.31964\\tools\\gnu tools ar
 966              		.file 6 "c:\\gd32embeddedbuilder_1.5.3.31964\\gd32embeddedbuilder_1.5.3.31964\\tools\\gnu tools ar
 967              		.file 7 "c:\\gd32embeddedbuilder_1.5.3.31964\\gd32embeddedbuilder_1.5.3.31964\\tools\\gnu tools ar
 968              		.file 8 "c:\\gd32embeddedbuilder_1.5.3.31964\\gd32embeddedbuilder_1.5.3.31964\\tools\\gnu tools ar
 969              		.file 9 "c:\\gd32embeddedbuilder_1.5.3.31964\\gd32embeddedbuilder_1.5.3.31964\\tools\\gnu tools ar
 970              		.file 10 "c:\\gd32embeddedbuilder_1.5.3.31964\\gd32embeddedbuilder_1.5.3.31964\\tools\\gnu tools a
 971              		.file 11 "c:\\gd32embeddedbuilder_1.5.3.31964\\gd32embeddedbuilder_1.5.3.31964\\tools\\gnu tools a
 972              		.file 12 "c:\\gd32embeddedbuilder_1.5.3.31964\\gd32embeddedbuilder_1.5.3.31964\\tools\\gnu tools a
 973              		.file 13 "c:\\gd32embeddedbuilder_1.5.3.31964\\gd32embeddedbuilder_1.5.3.31964\\tools\\gnu tools a
 974              		.file 14 "c:\\gd32embeddedbuilder_1.5.3.31964\\gd32embeddedbuilder_1.5.3.31964\\tools\\gnu tools a
 975              		.file 15 "c:\\gd32embeddedbuilder_1.5.3.31964\\gd32embeddedbuilder_1.5.3.31964\\tools\\gnu tools a