   1              		.cpu cortex-m4
   2              		.eabi_attribute 20, 1
   3              		.eabi_attribute 21, 1
   4              		.eabi_attribute 23, 3
   5              		.eabi_attribute 24, 1
   6              		.eabi_attribute 25, 1
   7              		.eabi_attribute 26, 1
   8              		.eabi_attribute 30, 6
   9              		.eabi_attribute 34, 1
  10              		.eabi_attribute 18, 4
  11              		.file	"gd32f307c_eval.c"
  12              		.text
  13              	.Ltext0:
  14              		.cfi_sections	.debug_frame
  15              		.section	.data.GPIO_PORT,"aw"
  16              		.align	2
  19              	GPIO_PORT:
  20 0000 00100140 		.word	1073811456
  21 0004 00100140 		.word	1073811456
  22 0008 00180140 		.word	1073813504
  23 000c 00180140 		.word	1073813504
  24              		.section	.data.GPIO_PIN,"aw"
  25              		.align	2
  28              	GPIO_PIN:
  29 0000 00400000 		.word	16384
  30 0004 04000000 		.word	4
  31 0008 01000000 		.word	1
  32 000c 02000000 		.word	2
  33              		.section	.data.COM_CLK,"aw"
  34              		.align	2
  37              	COM_CLK:
  38 0000 0E06     		.short	1550
  39 0002 1107     		.short	1809
  40              		.section	.data.COM_TX_PIN,"aw"
  41              		.align	2
  44              	COM_TX_PIN:
  45 0000 00020000 		.word	512
  46 0004 04000000 		.word	4
  47              		.section	.data.COM_RX_PIN,"aw"
  48              		.align	2
  51              	COM_RX_PIN:
  52 0000 00040000 		.word	1024
  53 0004 08000000 		.word	8
  54              		.section	.data.COM_GPIO_PORT,"aw"
  55              		.align	2
  58              	COM_GPIO_PORT:
  59 0000 00080140 		.word	1073809408
  60 0004 00080140 		.word	1073809408
  61              		.section	.data.COM_GPIO_CLK,"aw"
  62              		.align	2
  65              	COM_GPIO_CLK:
  66 0000 0206     		.short	1538
  67 0002 0206     		.short	1538
  68              		.section	.data.GPIO_CLK,"aw"
  69              		.align	2
  72              	GPIO_CLK:
  73 0000 0406     		.short	1540
  74 0002 0406     		.short	1540
  75 0004 0606     		.short	1542
  76 0006 0606     		.short	1542
  77              		.section	.data.KEY_PORT,"aw"
  78              		.align	2
  81              	KEY_PORT:
  82 0000 00080140 		.word	1073809408
  83 0004 00100140 		.word	1073811456
  84 0008 000C0140 		.word	1073810432
  85              		.section	.data.KEY_PIN,"aw"
  86              		.align	2
  89              	KEY_PIN:
  90 0000 01000000 		.word	1
  91 0004 00200000 		.word	8192
  92 0008 00400000 		.word	16384
  93              		.section	.data.KEY_CLK,"aw"
  94              		.align	2
  97              	KEY_CLK:
  98 0000 0206     		.short	1538
  99 0002 0406     		.short	1540
 100 0004 0306     		.short	1539
 101              		.section	.data.KEY_EXTI_LINE,"aw"
 102              		.align	2
 105              	KEY_EXTI_LINE:
 106 0000 01000000 		.word	1
 107 0004 00200000 		.word	8192
 108 0008 00400000 		.word	16384
 109              		.section	.data.KEY_PORT_SOURCE,"aw"
 110              		.align	2
 113              	KEY_PORT_SOURCE:
 114 0000 000201   		.ascii	"\000\002\001"
 115              		.section	.data.KEY_PIN_SOURCE,"aw"
 116              		.align	2
 119              	KEY_PIN_SOURCE:
 120 0000 000D0E   		.ascii	"\000\015\016"
 121              		.section	.data.KEY_IRQn,"aw"
 122              		.align	2
 125              	KEY_IRQn:
 126 0000 06       		.byte	6
 127 0001 28       		.byte	40
 128 0002 28       		.byte	40
 129              		.section	.text.gd_eval_led_init,"ax",%progbits
 130              		.align	1
 131              		.global	gd_eval_led_init
 132              		.arch armv7e-m
 133              		.syntax unified
 134              		.thumb
 135              		.thumb_func
 136              		.fpu softvfp
 138              	gd_eval_led_init:
 139              	.LFB116:
 140              		.file 1 "../src/gd32f307c_eval.c"
   1:../src/gd32f307c_eval.c **** /*!
   2:../src/gd32f307c_eval.c ****     \file    gd32f307c_eval.c
   3:../src/gd32f307c_eval.c ****     \brief   firmware functions to manage leds, keys, COM ports
   4:../src/gd32f307c_eval.c **** 
   5:../src/gd32f307c_eval.c ****    \version 2024-12-20, V3.0.1, firmware for GD32F30x
   6:../src/gd32f307c_eval.c **** */
   7:../src/gd32f307c_eval.c **** 
   8:../src/gd32f307c_eval.c **** /*
   9:../src/gd32f307c_eval.c ****     Copyright (c) 2024, GigaDevice Semiconductor Inc.
  10:../src/gd32f307c_eval.c **** 
  11:../src/gd32f307c_eval.c ****     Redistribution and use in source and binary forms, with or without modification, 
  12:../src/gd32f307c_eval.c **** are permitted provided that the following conditions are met:
  13:../src/gd32f307c_eval.c **** 
  14:../src/gd32f307c_eval.c ****     1. Redistributions of source code must retain the above copyright notice, this 
  15:../src/gd32f307c_eval.c ****        list of conditions and the following disclaimer.
  16:../src/gd32f307c_eval.c ****     2. Redistributions in binary form must reproduce the above copyright notice, 
  17:../src/gd32f307c_eval.c ****        this list of conditions and the following disclaimer in the documentation 
  18:../src/gd32f307c_eval.c ****        and/or other materials provided with the distribution.
  19:../src/gd32f307c_eval.c ****     3. Neither the name of the copyright holder nor the names of its contributors 
  20:../src/gd32f307c_eval.c ****        may be used to endorse or promote products derived from this software without 
  21:../src/gd32f307c_eval.c ****        specific prior written permission.
  22:../src/gd32f307c_eval.c **** 
  23:../src/gd32f307c_eval.c ****     THIS SOFTWARE IS PROVIDED BY THE COPYRIGHT HOLDERS AND CONTRIBUTORS "AS IS" 
  24:../src/gd32f307c_eval.c **** AND ANY EXPRESS OR IMPLIED WARRANTIES, INCLUDING, BUT NOT LIMITED TO, THE IMPLIED 
  25:../src/gd32f307c_eval.c **** WARRANTIES OF MERCHANTABILITY AND FITNESS FOR A PARTICULAR PURPOSE ARE DISCLAIMED. 
  26:../src/gd32f307c_eval.c **** IN NO EVENT SHALL THE COPYRIGHT HOLDER OR CONTRIBUTORS BE LIABLE FOR ANY DIRECT, 
  27:../src/gd32f307c_eval.c **** INDIRECT, INCIDENTAL, SPECIAL, EXEMPLARY, OR CONSEQUENTIAL DAMAGES (INCLUDING, BUT 
  28:../src/gd32f307c_eval.c **** NOT LIMITED TO, PROCUREMENT OF SUBSTITUTE GOODS OR SERVICES; LOSS OF USE, DATA, OR 
  29:../src/gd32f307c_eval.c **** PROFITS; OR BUSINESS INTERRUPTION) HOWEVER CAUSED AND ON ANY THEORY OF LIABILITY, 
  30:../src/gd32f307c_eval.c **** WHETHER IN CONTRACT, STRICT LIABILITY, OR TORT (INCLUDING NEGLIGENCE OR OTHERWISE) 
  31:../src/gd32f307c_eval.c **** ARISING IN ANY WAY OUT OF THE USE OF THIS SOFTWARE, EVEN IF ADVISED OF THE POSSIBILITY 
  32:../src/gd32f307c_eval.c **** OF SUCH DAMAGE.
  33:../src/gd32f307c_eval.c **** */
  34:../src/gd32f307c_eval.c **** 
  35:../src/gd32f307c_eval.c **** #include <gd32f30x.h>
  36:../src/gd32f307c_eval.c **** #include "gd32f307c_eval.h"
  37:../src/gd32f307c_eval.c **** 
  38:../src/gd32f307c_eval.c **** /* private variables */
  39:../src/gd32f307c_eval.c **** static uint32_t GPIO_PORT[LEDn] = {LED2_GPIO_PORT, LED3_GPIO_PORT,
  40:../src/gd32f307c_eval.c ****                                    LED4_GPIO_PORT, LED5_GPIO_PORT};
  41:../src/gd32f307c_eval.c **** static uint32_t GPIO_PIN[LEDn] = {LED2_PIN, LED3_PIN, LED4_PIN, LED5_PIN};
  42:../src/gd32f307c_eval.c **** 
  43:../src/gd32f307c_eval.c **** static rcu_periph_enum COM_CLK[COMn] = {EVAL_COM0_CLK, EVAL_COM1_CLK};
  44:../src/gd32f307c_eval.c **** static uint32_t COM_TX_PIN[COMn] = {EVAL_COM0_TX_PIN, EVAL_COM1_TX_PIN};
  45:../src/gd32f307c_eval.c **** static uint32_t COM_RX_PIN[COMn] = {EVAL_COM0_RX_PIN, EVAL_COM1_RX_PIN};
  46:../src/gd32f307c_eval.c **** static uint32_t COM_GPIO_PORT[COMn] = {EVAL_COM0_GPIO_PORT, EVAL_COM1_GPIO_PORT};
  47:../src/gd32f307c_eval.c **** static rcu_periph_enum COM_GPIO_CLK[COMn] = {EVAL_COM0_GPIO_CLK, EVAL_COM1_GPIO_CLK};
  48:../src/gd32f307c_eval.c **** 
  49:../src/gd32f307c_eval.c **** static rcu_periph_enum GPIO_CLK[LEDn] = {LED2_GPIO_CLK, LED3_GPIO_CLK, 
  50:../src/gd32f307c_eval.c ****                                          LED4_GPIO_CLK, LED5_GPIO_CLK};
  51:../src/gd32f307c_eval.c **** 
  52:../src/gd32f307c_eval.c **** static uint32_t KEY_PORT[KEYn] = {WAKEUP_KEY_GPIO_PORT, 
  53:../src/gd32f307c_eval.c ****                                   TAMPER_KEY_GPIO_PORT,
  54:../src/gd32f307c_eval.c ****                                   USER_KEY_GPIO_PORT};
  55:../src/gd32f307c_eval.c **** static uint32_t KEY_PIN[KEYn] = {WAKEUP_KEY_PIN, TAMPER_KEY_PIN,USER_KEY_PIN,};
  56:../src/gd32f307c_eval.c **** static rcu_periph_enum KEY_CLK[KEYn] = {WAKEUP_KEY_GPIO_CLK, 
  57:../src/gd32f307c_eval.c ****                                         TAMPER_KEY_GPIO_CLK,
  58:../src/gd32f307c_eval.c ****                                         USER_KEY_GPIO_CLK};
  59:../src/gd32f307c_eval.c **** static exti_line_enum KEY_EXTI_LINE[KEYn] = {WAKEUP_KEY_EXTI_LINE,
  60:../src/gd32f307c_eval.c ****                                              TAMPER_KEY_EXTI_LINE,
  61:../src/gd32f307c_eval.c ****                                              USER_KEY_EXTI_LINE};
  62:../src/gd32f307c_eval.c **** static uint8_t KEY_PORT_SOURCE[KEYn] = {WAKEUP_KEY_EXTI_PORT_SOURCE,
  63:../src/gd32f307c_eval.c ****                                         TAMPER_KEY_EXTI_PORT_SOURCE,
  64:../src/gd32f307c_eval.c ****                                         USER_KEY_EXTI_PORT_SOURCE};
  65:../src/gd32f307c_eval.c **** static uint8_t KEY_PIN_SOURCE[KEYn] = {WAKEUP_KEY_EXTI_PIN_SOURCE,
  66:../src/gd32f307c_eval.c ****                                        TAMPER_KEY_EXTI_PIN_SOURCE,
  67:../src/gd32f307c_eval.c ****                                        USER_KEY_EXTI_PIN_SOURCE};
  68:../src/gd32f307c_eval.c **** static IRQn_Type KEY_IRQn[KEYn] = {WAKEUP_KEY_EXTI_IRQn, 
  69:../src/gd32f307c_eval.c ****                                  TAMPER_KEY_EXTI_IRQn,
  70:../src/gd32f307c_eval.c ****                                  USER_KEY_EXTI_IRQn};
  71:../src/gd32f307c_eval.c **** 
  72:../src/gd32f307c_eval.c **** /*!
  73:../src/gd32f307c_eval.c ****     \brief      configure led GPIO
  74:../src/gd32f307c_eval.c ****     \param[in]  lednum: specify the led to be configured
  75:../src/gd32f307c_eval.c ****       \arg        LED2
  76:../src/gd32f307c_eval.c ****       \arg        LED3
  77:../src/gd32f307c_eval.c ****       \arg        LED4
  78:../src/gd32f307c_eval.c ****       \arg        LED5
  79:../src/gd32f307c_eval.c ****     \param[out] none
  80:../src/gd32f307c_eval.c ****     \retval     none
  81:../src/gd32f307c_eval.c **** */
  82:../src/gd32f307c_eval.c **** void  gd_eval_led_init (led_typedef_enum lednum)
  83:../src/gd32f307c_eval.c **** {
 141              		.loc 1 83 1
 142              		.cfi_startproc
 143              		@ args = 0, pretend = 0, frame = 8
 144              		@ frame_needed = 1, uses_anonymous_args = 0
 145 0000 80B5     		push	{r7, lr}
 146              		.cfi_def_cfa_offset 8
 147              		.cfi_offset 7, -8
 148              		.cfi_offset 14, -4
 149 0002 82B0     		sub	sp, sp, #8
 150              		.cfi_def_cfa_offset 16
 151 0004 00AF     		add	r7, sp, #0
 152              		.cfi_def_cfa_register 7
 153 0006 0346     		mov	r3, r0
 154 0008 FB71     		strb	r3, [r7, #7]
  84:../src/gd32f307c_eval.c ****     /* enable the led clock */
  85:../src/gd32f307c_eval.c ****     rcu_periph_clock_enable(GPIO_CLK[lednum]);
 155              		.loc 1 85 5
 156 000a FB79     		ldrb	r3, [r7, #7]	@ zero_extendqisi2
 157 000c 104A     		ldr	r2, .L2
 158 000e 32F81330 		ldrh	r3, [r2, r3, lsl #1]
 159 0012 1846     		mov	r0, r3
 160 0014 FFF7FEFF 		bl	rcu_periph_clock_enable
  86:../src/gd32f307c_eval.c ****     /* configure led GPIO port */ 
  87:../src/gd32f307c_eval.c ****     gpio_init(GPIO_PORT[lednum], GPIO_MODE_OUT_PP, GPIO_OSPEED_50MHZ,GPIO_PIN[lednum]);
 161              		.loc 1 87 5
 162 0018 FB79     		ldrb	r3, [r7, #7]	@ zero_extendqisi2
 163 001a 0E4A     		ldr	r2, .L2+4
 164 001c 52F82300 		ldr	r0, [r2, r3, lsl #2]
 165 0020 FB79     		ldrb	r3, [r7, #7]	@ zero_extendqisi2
 166 0022 0D4A     		ldr	r2, .L2+8
 167 0024 52F82330 		ldr	r3, [r2, r3, lsl #2]
 168 0028 0322     		movs	r2, #3
 169 002a 1021     		movs	r1, #16
 170 002c FFF7FEFF 		bl	gpio_init
  88:../src/gd32f307c_eval.c **** 
  89:../src/gd32f307c_eval.c ****     GPIO_BC(GPIO_PORT[lednum]) = GPIO_PIN[lednum];
 171              		.loc 1 89 42
 172 0030 FB79     		ldrb	r3, [r7, #7]	@ zero_extendqisi2
 173              		.loc 1 89 5
 174 0032 FA79     		ldrb	r2, [r7, #7]	@ zero_extendqisi2
 175 0034 0749     		ldr	r1, .L2+4
 176 0036 51F82220 		ldr	r2, [r1, r2, lsl #2]
 177 003a 1432     		adds	r2, r2, #20
 178 003c 1146     		mov	r1, r2
 179              		.loc 1 89 42
 180 003e 064A     		ldr	r2, .L2+8
 181 0040 52F82330 		ldr	r3, [r2, r3, lsl #2]
 182              		.loc 1 89 32
 183 0044 0B60     		str	r3, [r1]
  90:../src/gd32f307c_eval.c **** }
 184              		.loc 1 90 1
 185 0046 00BF     		nop
 186 0048 0837     		adds	r7, r7, #8
 187              		.cfi_def_cfa_offset 8
 188 004a BD46     		mov	sp, r7
 189              		.cfi_def_cfa_register 13
 190              		@ sp needed
 191 004c 80BD     		pop	{r7, pc}
 192              	.L3:
 193 004e 00BF     		.align	2
 194              	.L2:
 195 0050 00000000 		.word	GPIO_CLK
 196 0054 00000000 		.word	GPIO_PORT
 197 0058 00000000 		.word	GPIO_PIN
 198              		.cfi_endproc
 199              	.LFE116:
 201              		.section	.text.gd_eval_led_on,"ax",%progbits
 202              		.align	1
 203              		.global	gd_eval_led_on
 204              		.syntax unified
 205              		.thumb
 206              		.thumb_func
 207              		.fpu softvfp
 209              	gd_eval_led_on:
 210              	.LFB117:
  91:../src/gd32f307c_eval.c **** 
  92:../src/gd32f307c_eval.c **** /*!
  93:../src/gd32f307c_eval.c ****     \brief      turn on selected led
  94:../src/gd32f307c_eval.c ****     \param[in]  lednum: specify the led to be turned on
  95:../src/gd32f307c_eval.c ****       \arg        LED2
  96:../src/gd32f307c_eval.c ****       \arg        LED3
  97:../src/gd32f307c_eval.c ****       \arg        LED4
  98:../src/gd32f307c_eval.c ****       \arg        LED5
  99:../src/gd32f307c_eval.c ****     \param[out] none
 100:../src/gd32f307c_eval.c ****     \retval     none
 101:../src/gd32f307c_eval.c **** */
 102:../src/gd32f307c_eval.c **** void gd_eval_led_on(led_typedef_enum lednum)
 103:../src/gd32f307c_eval.c **** {
 211              		.loc 1 103 1
 212              		.cfi_startproc
 213              		@ args = 0, pretend = 0, frame = 8
 214              		@ frame_needed = 1, uses_anonymous_args = 0
 215              		@ link register save eliminated.
 216 0000 80B4     		push	{r7}
 217              		.cfi_def_cfa_offset 4
 218              		.cfi_offset 7, -4
 219 0002 83B0     		sub	sp, sp, #12
 220              		.cfi_def_cfa_offset 16
 221 0004 00AF     		add	r7, sp, #0
 222              		.cfi_def_cfa_register 7
 223 0006 0346     		mov	r3, r0
 224 0008 FB71     		strb	r3, [r7, #7]
 104:../src/gd32f307c_eval.c ****     GPIO_BOP(GPIO_PORT[lednum]) = GPIO_PIN[lednum];
 225              		.loc 1 104 43
 226 000a FB79     		ldrb	r3, [r7, #7]	@ zero_extendqisi2
 227              		.loc 1 104 5
 228 000c FA79     		ldrb	r2, [r7, #7]	@ zero_extendqisi2
 229 000e 0749     		ldr	r1, .L5
 230 0010 51F82220 		ldr	r2, [r1, r2, lsl #2]
 231 0014 1032     		adds	r2, r2, #16
 232 0016 1146     		mov	r1, r2
 233              		.loc 1 104 43
 234 0018 054A     		ldr	r2, .L5+4
 235 001a 52F82330 		ldr	r3, [r2, r3, lsl #2]
 236              		.loc 1 104 33
 237 001e 0B60     		str	r3, [r1]
 105:../src/gd32f307c_eval.c **** }
 238              		.loc 1 105 1
 239 0020 00BF     		nop
 240 0022 0C37     		adds	r7, r7, #12
 241              		.cfi_def_cfa_offset 4
 242 0024 BD46     		mov	sp, r7
 243              		.cfi_def_cfa_register 13
 244              		@ sp needed
 245 0026 80BC     		pop	{r7}
 246              		.cfi_restore 7
 247              		.cfi_def_cfa_offset 0
 248 0028 7047     		bx	lr
 249              	.L6:
 250 002a 00BF     		.align	2
 251              	.L5:
 252 002c 00000000 		.word	GPIO_PORT
 253 0030 00000000 		.word	GPIO_PIN
 254              		.cfi_endproc
 255              	.LFE117:
 257              		.section	.text.gd_eval_led_off,"ax",%progbits
 258              		.align	1
 259              		.global	gd_eval_led_off
 260              		.syntax unified
 261              		.thumb
 262              		.thumb_func
 263              		.fpu softvfp
 265              	gd_eval_led_off:
 266              	.LFB118:
 106:../src/gd32f307c_eval.c **** 
 107:../src/gd32f307c_eval.c **** /*!
 108:../src/gd32f307c_eval.c ****     \brief      turn off selected led
 109:../src/gd32f307c_eval.c ****     \param[in]  lednum: specify the led to be turned off
 110:../src/gd32f307c_eval.c ****       \arg        LED2
 111:../src/gd32f307c_eval.c ****       \arg        LED3
 112:../src/gd32f307c_eval.c ****       \arg        LED4
 113:../src/gd32f307c_eval.c ****       \arg        LED5
 114:../src/gd32f307c_eval.c ****     \param[out] none
 115:../src/gd32f307c_eval.c ****     \retval     none
 116:../src/gd32f307c_eval.c **** */
 117:../src/gd32f307c_eval.c **** void gd_eval_led_off(led_typedef_enum lednum)
 118:../src/gd32f307c_eval.c **** {
 267              		.loc 1 118 1
 268              		.cfi_startproc
 269              		@ args = 0, pretend = 0, frame = 8
 270              		@ frame_needed = 1, uses_anonymous_args = 0
 271              		@ link register save eliminated.
 272 0000 80B4     		push	{r7}
 273              		.cfi_def_cfa_offset 4
 274              		.cfi_offset 7, -4
 275 0002 83B0     		sub	sp, sp, #12
 276              		.cfi_def_cfa_offset 16
 277 0004 00AF     		add	r7, sp, #0
 278              		.cfi_def_cfa_register 7
 279 0006 0346     		mov	r3, r0
 280 0008 FB71     		strb	r3, [r7, #7]
 119:../src/gd32f307c_eval.c ****     GPIO_BC(GPIO_PORT[lednum]) = GPIO_PIN[lednum];
 281              		.loc 1 119 42
 282 000a FB79     		ldrb	r3, [r7, #7]	@ zero_extendqisi2
 283              		.loc 1 119 5
 284 000c FA79     		ldrb	r2, [r7, #7]	@ zero_extendqisi2
 285 000e 0749     		ldr	r1, .L8
 286 0010 51F82220 		ldr	r2, [r1, r2, lsl #2]
 287 0014 1432     		adds	r2, r2, #20
 288 0016 1146     		mov	r1, r2
 289              		.loc 1 119 42
 290 0018 054A     		ldr	r2, .L8+4
 291 001a 52F82330 		ldr	r3, [r2, r3, lsl #2]
 292              		.loc 1 119 32
 293 001e 0B60     		str	r3, [r1]
 120:../src/gd32f307c_eval.c **** }
 294              		.loc 1 120 1
 295 0020 00BF     		nop
 296 0022 0C37     		adds	r7, r7, #12
 297              		.cfi_def_cfa_offset 4
 298 0024 BD46     		mov	sp, r7
 299              		.cfi_def_cfa_register 13
 300              		@ sp needed
 301 0026 80BC     		pop	{r7}
 302              		.cfi_restore 7
 303              		.cfi_def_cfa_offset 0
 304 0028 7047     		bx	lr
 305              	.L9:
 306 002a 00BF     		.align	2
 307              	.L8:
 308 002c 00000000 		.word	GPIO_PORT
 309 0030 00000000 		.word	GPIO_PIN
 310              		.cfi_endproc
 311              	.LFE118:
 313              		.section	.text.gd_eval_led_toggle,"ax",%progbits
 314              		.align	1
 315              		.global	gd_eval_led_toggle
 316              		.syntax unified
 317              		.thumb
 318              		.thumb_func
 319              		.fpu softvfp
 321              	gd_eval_led_toggle:
 322              	.LFB119:
 121:../src/gd32f307c_eval.c **** 
 122:../src/gd32f307c_eval.c **** /*!
 123:../src/gd32f307c_eval.c ****     \brief      toggle selected led
 124:../src/gd32f307c_eval.c ****     \param[in]  lednum: specify the led to be toggled
 125:../src/gd32f307c_eval.c ****       \arg        LED2
 126:../src/gd32f307c_eval.c ****       \arg        LED3
 127:../src/gd32f307c_eval.c ****       \arg        LED4
 128:../src/gd32f307c_eval.c ****       \arg        LED5
 129:../src/gd32f307c_eval.c ****     \param[out] none
 130:../src/gd32f307c_eval.c ****     \retval     none
 131:../src/gd32f307c_eval.c **** */
 132:../src/gd32f307c_eval.c **** void gd_eval_led_toggle(led_typedef_enum lednum)
 133:../src/gd32f307c_eval.c **** {
 323              		.loc 1 133 1
 324              		.cfi_startproc
 325              		@ args = 0, pretend = 0, frame = 8
 326              		@ frame_needed = 1, uses_anonymous_args = 0
 327 0000 B0B5     		push	{r4, r5, r7, lr}
 328              		.cfi_def_cfa_offset 16
 329              		.cfi_offset 4, -16
 330              		.cfi_offset 5, -12
 331              		.cfi_offset 7, -8
 332              		.cfi_offset 14, -4
 333 0002 82B0     		sub	sp, sp, #8
 334              		.cfi_def_cfa_offset 24
 335 0004 00AF     		add	r7, sp, #0
 336              		.cfi_def_cfa_register 7
 337 0006 0346     		mov	r3, r0
 338 0008 FB71     		strb	r3, [r7, #7]
 134:../src/gd32f307c_eval.c ****     gpio_bit_write(GPIO_PORT[lednum], GPIO_PIN[lednum], 
 339              		.loc 1 134 5
 340 000a FB79     		ldrb	r3, [r7, #7]	@ zero_extendqisi2
 341 000c 0F4A     		ldr	r2, .L11
 342 000e 52F82340 		ldr	r4, [r2, r3, lsl #2]
 343 0012 FB79     		ldrb	r3, [r7, #7]	@ zero_extendqisi2
 344 0014 0E4A     		ldr	r2, .L11+4
 345 0016 52F82350 		ldr	r5, [r2, r3, lsl #2]
 135:../src/gd32f307c_eval.c ****                     (bit_status)(1-gpio_input_bit_get(GPIO_PORT[lednum], GPIO_PIN[lednum])));
 346              		.loc 1 135 36
 347 001a FB79     		ldrb	r3, [r7, #7]	@ zero_extendqisi2
 348 001c 0B4A     		ldr	r2, .L11
 349 001e 52F82320 		ldr	r2, [r2, r3, lsl #2]
 350 0022 FB79     		ldrb	r3, [r7, #7]	@ zero_extendqisi2
 351 0024 0A49     		ldr	r1, .L11+4
 352 0026 51F82330 		ldr	r3, [r1, r3, lsl #2]
 353 002a 1946     		mov	r1, r3
 354 002c 1046     		mov	r0, r2
 355 002e FFF7FEFF 		bl	gpio_input_bit_get
 356 0032 0346     		mov	r3, r0
 357              		.loc 1 135 35
 358 0034 C3F10103 		rsb	r3, r3, #1
 359 0038 DBB2     		uxtb	r3, r3
 134:../src/gd32f307c_eval.c ****     gpio_bit_write(GPIO_PORT[lednum], GPIO_PIN[lednum], 
 360              		.loc 1 134 5
 361 003a 1A46     		mov	r2, r3
 362 003c 2946     		mov	r1, r5
 363 003e 2046     		mov	r0, r4
 364 0040 FFF7FEFF 		bl	gpio_bit_write
 136:../src/gd32f307c_eval.c **** }
 365              		.loc 1 136 1
 366 0044 00BF     		nop
 367 0046 0837     		adds	r7, r7, #8
 368              		.cfi_def_cfa_offset 16
 369 0048 BD46     		mov	sp, r7
 370              		.cfi_def_cfa_register 13
 371              		@ sp needed
 372 004a B0BD     		pop	{r4, r5, r7, pc}
 373              	.L12:
 374              		.align	2
 375              	.L11:
 376 004c 00000000 		.word	GPIO_PORT
 377 0050 00000000 		.word	GPIO_PIN
 378              		.cfi_endproc
 379              	.LFE119:
 381              		.section	.text.gd_eval_key_init,"ax",%progbits
 382              		.align	1
 383              		.global	gd_eval_key_init
 384              		.syntax unified
 385              		.thumb
 386              		.thumb_func
 387              		.fpu softvfp
 389              	gd_eval_key_init:
 390              	.LFB120:
 137:../src/gd32f307c_eval.c **** 
 138:../src/gd32f307c_eval.c **** /*!
 139:../src/gd32f307c_eval.c ****     \brief      configure key
 140:../src/gd32f307c_eval.c ****     \param[in]  key_num: specify the key to be configured
 141:../src/gd32f307c_eval.c ****       \arg        KEY_TAMPER: tamper key
 142:../src/gd32f307c_eval.c ****       \arg        KEY_WAKEUP: wakeup key
 143:../src/gd32f307c_eval.c ****       \arg        KEY_USER: user key
 144:../src/gd32f307c_eval.c ****     \param[in]  key_mode: specify button mode
 145:../src/gd32f307c_eval.c ****       \arg        KEY_MODE_GPIO: key will be used as simple IO
 146:../src/gd32f307c_eval.c ****       \arg        KEY_MODE_EXTI: key will be connected to EXTI line with interrupt
 147:../src/gd32f307c_eval.c ****     \param[out] none
 148:../src/gd32f307c_eval.c ****     \retval     none
 149:../src/gd32f307c_eval.c **** */
 150:../src/gd32f307c_eval.c **** void gd_eval_key_init(key_typedef_enum key_num, keymode_typedef_enum key_mode)
 151:../src/gd32f307c_eval.c **** {
 391              		.loc 1 151 1
 392              		.cfi_startproc
 393              		@ args = 0, pretend = 0, frame = 8
 394              		@ frame_needed = 1, uses_anonymous_args = 0
 395 0000 80B5     		push	{r7, lr}
 396              		.cfi_def_cfa_offset 8
 397              		.cfi_offset 7, -8
 398              		.cfi_offset 14, -4
 399 0002 82B0     		sub	sp, sp, #8
 400              		.cfi_def_cfa_offset 16
 401 0004 00AF     		add	r7, sp, #0
 402              		.cfi_def_cfa_register 7
 403 0006 0346     		mov	r3, r0
 404 0008 0A46     		mov	r2, r1
 405 000a FB71     		strb	r3, [r7, #7]
 406 000c 1346     		mov	r3, r2
 407 000e BB71     		strb	r3, [r7, #6]
 152:../src/gd32f307c_eval.c ****     /* enable the key clock */
 153:../src/gd32f307c_eval.c ****     rcu_periph_clock_enable(KEY_CLK[key_num]);
 408              		.loc 1 153 5
 409 0010 FB79     		ldrb	r3, [r7, #7]	@ zero_extendqisi2
 410 0012 1F4A     		ldr	r2, .L16
 411 0014 32F81330 		ldrh	r3, [r2, r3, lsl #1]
 412 0018 1846     		mov	r0, r3
 413 001a FFF7FEFF 		bl	rcu_periph_clock_enable
 154:../src/gd32f307c_eval.c ****     rcu_periph_clock_enable(RCU_AF);
 414              		.loc 1 154 5
 415 001e 4FF4C060 		mov	r0, #1536
 416 0022 FFF7FEFF 		bl	rcu_periph_clock_enable
 155:../src/gd32f307c_eval.c **** 
 156:../src/gd32f307c_eval.c ****     /* configure button pin as input */
 157:../src/gd32f307c_eval.c ****     gpio_init(KEY_PORT[key_num], GPIO_MODE_IN_FLOATING, GPIO_OSPEED_50MHZ, KEY_PIN[key_num]);
 417              		.loc 1 157 5
 418 0026 FB79     		ldrb	r3, [r7, #7]	@ zero_extendqisi2
 419 0028 1A4A     		ldr	r2, .L16+4
 420 002a 52F82300 		ldr	r0, [r2, r3, lsl #2]
 421 002e FB79     		ldrb	r3, [r7, #7]	@ zero_extendqisi2
 422 0030 194A     		ldr	r2, .L16+8
 423 0032 52F82330 		ldr	r3, [r2, r3, lsl #2]
 424 0036 0322     		movs	r2, #3
 425 0038 0421     		movs	r1, #4
 426 003a FFF7FEFF 		bl	gpio_init
 158:../src/gd32f307c_eval.c **** 
 159:../src/gd32f307c_eval.c ****     if (key_mode == KEY_MODE_EXTI) {
 427              		.loc 1 159 8
 428 003e BB79     		ldrb	r3, [r7, #6]	@ zero_extendqisi2
 429 0040 012B     		cmp	r3, #1
 430 0042 21D1     		bne	.L15
 160:../src/gd32f307c_eval.c ****         /* enable and set key EXTI interrupt to the lowest priority */
 161:../src/gd32f307c_eval.c ****         nvic_irq_enable(KEY_IRQn[key_num], 2U, 0U);
 431              		.loc 1 161 9
 432 0044 FB79     		ldrb	r3, [r7, #7]	@ zero_extendqisi2
 433 0046 154A     		ldr	r2, .L16+12
 434 0048 D356     		ldrsb	r3, [r2, r3]
 435 004a 0022     		movs	r2, #0
 436 004c 0221     		movs	r1, #2
 437 004e 1846     		mov	r0, r3
 438 0050 FFF7FEFF 		bl	nvic_irq_enable
 162:../src/gd32f307c_eval.c **** 
 163:../src/gd32f307c_eval.c ****         /* connect key EXTI line to key GPIO pin */
 164:../src/gd32f307c_eval.c ****         gpio_exti_source_select(KEY_PORT_SOURCE[key_num], KEY_PIN_SOURCE[key_num]);
 439              		.loc 1 164 9
 440 0054 FB79     		ldrb	r3, [r7, #7]	@ zero_extendqisi2
 441 0056 124A     		ldr	r2, .L16+16
 442 0058 D25C     		ldrb	r2, [r2, r3]	@ zero_extendqisi2
 443 005a FB79     		ldrb	r3, [r7, #7]	@ zero_extendqisi2
 444 005c 1149     		ldr	r1, .L16+20
 445 005e CB5C     		ldrb	r3, [r1, r3]	@ zero_extendqisi2
 446 0060 1946     		mov	r1, r3
 447 0062 1046     		mov	r0, r2
 448 0064 FFF7FEFF 		bl	gpio_exti_source_select
 165:../src/gd32f307c_eval.c **** 
 166:../src/gd32f307c_eval.c ****         /* configure key EXTI line */
 167:../src/gd32f307c_eval.c ****         exti_init(KEY_EXTI_LINE[key_num], EXTI_INTERRUPT, EXTI_TRIG_FALLING);
 449              		.loc 1 167 9
 450 0068 FB79     		ldrb	r3, [r7, #7]	@ zero_extendqisi2
 451 006a 0F4A     		ldr	r2, .L16+24
 452 006c 52F82330 		ldr	r3, [r2, r3, lsl #2]
 453 0070 0122     		movs	r2, #1
 454 0072 0021     		movs	r1, #0
 455 0074 1846     		mov	r0, r3
 456 0076 FFF7FEFF 		bl	exti_init
 168:../src/gd32f307c_eval.c ****         exti_interrupt_flag_clear(KEY_EXTI_LINE[key_num]);
 457              		.loc 1 168 9
 458 007a FB79     		ldrb	r3, [r7, #7]	@ zero_extendqisi2
 459 007c 0A4A     		ldr	r2, .L16+24
 460 007e 52F82330 		ldr	r3, [r2, r3, lsl #2]
 461 0082 1846     		mov	r0, r3
 462 0084 FFF7FEFF 		bl	exti_interrupt_flag_clear
 463              	.L15:
 169:../src/gd32f307c_eval.c ****     }
 170:../src/gd32f307c_eval.c **** }
 464              		.loc 1 170 1
 465 0088 00BF     		nop
 466 008a 0837     		adds	r7, r7, #8
 467              		.cfi_def_cfa_offset 8
 468 008c BD46     		mov	sp, r7
 469              		.cfi_def_cfa_register 13
 470              		@ sp needed
 471 008e 80BD     		pop	{r7, pc}
 472              	.L17:
 473              		.align	2
 474              	.L16:
 475 0090 00000000 		.word	KEY_CLK
 476 0094 00000000 		.word	KEY_PORT
 477 0098 00000000 		.word	KEY_PIN
 478 009c 00000000 		.word	KEY_IRQn
 479 00a0 00000000 		.word	KEY_PORT_SOURCE
 480 00a4 00000000 		.word	KEY_PIN_SOURCE
 481 00a8 00000000 		.word	KEY_EXTI_LINE
 482              		.cfi_endproc
 483              	.LFE120:
 485              		.section	.text.gd_eval_key_state_get,"ax",%progbits
 486              		.align	1
 487              		.global	gd_eval_key_state_get
 488              		.syntax unified
 489              		.thumb
 490              		.thumb_func
 491              		.fpu softvfp
 493              	gd_eval_key_state_get:
 494              	.LFB121:
 171:../src/gd32f307c_eval.c **** 
 172:../src/gd32f307c_eval.c **** /*!
 173:../src/gd32f307c_eval.c ****     \brief      return the selected key state
 174:../src/gd32f307c_eval.c ****     \param[in]  key: specify the key to be checked
 175:../src/gd32f307c_eval.c ****       \arg        KEY_TAMPER: tamper key
 176:../src/gd32f307c_eval.c ****       \arg        KEY_WAKEUP: wakeup key
 177:../src/gd32f307c_eval.c ****       \arg        KEY_USER: user key
 178:../src/gd32f307c_eval.c ****     \param[out] none
 179:../src/gd32f307c_eval.c ****     \retval     the key's GPIO pin value
 180:../src/gd32f307c_eval.c **** */
 181:../src/gd32f307c_eval.c **** uint8_t gd_eval_key_state_get(key_typedef_enum key)
 182:../src/gd32f307c_eval.c **** {
 495              		.loc 1 182 1
 496              		.cfi_startproc
 497              		@ args = 0, pretend = 0, frame = 8
 498              		@ frame_needed = 1, uses_anonymous_args = 0
 499 0000 80B5     		push	{r7, lr}
 500              		.cfi_def_cfa_offset 8
 501              		.cfi_offset 7, -8
 502              		.cfi_offset 14, -4
 503 0002 82B0     		sub	sp, sp, #8
 504              		.cfi_def_cfa_offset 16
 505 0004 00AF     		add	r7, sp, #0
 506              		.cfi_def_cfa_register 7
 507 0006 0346     		mov	r3, r0
 508 0008 FB71     		strb	r3, [r7, #7]
 183:../src/gd32f307c_eval.c ****     return gpio_input_bit_get(KEY_PORT[key], KEY_PIN[key]);
 509              		.loc 1 183 12
 510 000a FB79     		ldrb	r3, [r7, #7]	@ zero_extendqisi2
 511 000c 074A     		ldr	r2, .L20
 512 000e 52F82320 		ldr	r2, [r2, r3, lsl #2]
 513 0012 FB79     		ldrb	r3, [r7, #7]	@ zero_extendqisi2
 514 0014 0649     		ldr	r1, .L20+4
 515 0016 51F82330 		ldr	r3, [r1, r3, lsl #2]
 516 001a 1946     		mov	r1, r3
 517 001c 1046     		mov	r0, r2
 518 001e FFF7FEFF 		bl	gpio_input_bit_get
 519 0022 0346     		mov	r3, r0
 184:../src/gd32f307c_eval.c **** }
 520              		.loc 1 184 1
 521 0024 1846     		mov	r0, r3
 522 0026 0837     		adds	r7, r7, #8
 523              		.cfi_def_cfa_offset 8
 524 0028 BD46     		mov	sp, r7
 525              		.cfi_def_cfa_register 13
 526              		@ sp needed
 527 002a 80BD     		pop	{r7, pc}
 528              	.L21:
 529              		.align	2
 530              	.L20:
 531 002c 00000000 		.word	KEY_PORT
 532 0030 00000000 		.word	KEY_PIN
 533              		.cfi_endproc
 534              	.LFE121:
 536              		.section	.text.gd_eval_com_init,"ax",%progbits
 537              		.align	1
 538              		.global	gd_eval_com_init
 539              		.syntax unified
 540              		.thumb
 541              		.thumb_func
 542              		.fpu softvfp
 544              	gd_eval_com_init:
 545              	.LFB122:
 185:../src/gd32f307c_eval.c **** 
 186:../src/gd32f307c_eval.c **** /*!
 187:../src/gd32f307c_eval.c ****     \brief      configure COM port
 188:../src/gd32f307c_eval.c ****     \param[in]  com: COM on the board
 189:../src/gd32f307c_eval.c ****       \arg        EVAL_COM0: COM0 on the board
 190:../src/gd32f307c_eval.c ****       \arg        EVAL_COM1: COM1 on the board
 191:../src/gd32f307c_eval.c ****     \param[out] none
 192:../src/gd32f307c_eval.c ****     \retval     none
 193:../src/gd32f307c_eval.c **** */
 194:../src/gd32f307c_eval.c **** void gd_eval_com_init(uint32_t com)
 195:../src/gd32f307c_eval.c **** {
 546              		.loc 1 195 1
 547              		.cfi_startproc
 548              		@ args = 0, pretend = 0, frame = 16
 549              		@ frame_needed = 1, uses_anonymous_args = 0
 550 0000 80B5     		push	{r7, lr}
 551              		.cfi_def_cfa_offset 8
 552              		.cfi_offset 7, -8
 553              		.cfi_offset 14, -4
 554 0002 84B0     		sub	sp, sp, #16
 555              		.cfi_def_cfa_offset 24
 556 0004 00AF     		add	r7, sp, #0
 557              		.cfi_def_cfa_register 7
 558 0006 7860     		str	r0, [r7, #4]
 196:../src/gd32f307c_eval.c ****     uint32_t com_id = 0U;
 559              		.loc 1 196 14
 560 0008 0023     		movs	r3, #0
 561 000a FB60     		str	r3, [r7, #12]
 197:../src/gd32f307c_eval.c ****     if(EVAL_COM0 == com){
 562              		.loc 1 197 7
 563 000c 7B68     		ldr	r3, [r7, #4]
 564 000e 244A     		ldr	r2, .L25
 565 0010 9342     		cmp	r3, r2
 566 0012 02D1     		bne	.L23
 198:../src/gd32f307c_eval.c ****         com_id = 0U;
 567              		.loc 1 198 16
 568 0014 0023     		movs	r3, #0
 569 0016 FB60     		str	r3, [r7, #12]
 570 0018 05E0     		b	.L24
 571              	.L23:
 199:../src/gd32f307c_eval.c ****     }else if(EVAL_COM1 == com){
 572              		.loc 1 199 13
 573 001a 7B68     		ldr	r3, [r7, #4]
 574 001c 214A     		ldr	r2, .L25+4
 575 001e 9342     		cmp	r3, r2
 576 0020 01D1     		bne	.L24
 200:../src/gd32f307c_eval.c ****         com_id = 1U;
 577              		.loc 1 200 16
 578 0022 0123     		movs	r3, #1
 579 0024 FB60     		str	r3, [r7, #12]
 580              	.L24:
 201:../src/gd32f307c_eval.c ****     }
 202:../src/gd32f307c_eval.c ****     
 203:../src/gd32f307c_eval.c ****     /* enable GPIO clock */
 204:../src/gd32f307c_eval.c ****     rcu_periph_clock_enable(COM_GPIO_CLK[com_id]);
 581              		.loc 1 204 5
 582 0026 204A     		ldr	r2, .L25+8
 583 0028 FB68     		ldr	r3, [r7, #12]
 584 002a 32F81330 		ldrh	r3, [r2, r3, lsl #1]
 585 002e 1846     		mov	r0, r3
 586 0030 FFF7FEFF 		bl	rcu_periph_clock_enable
 205:../src/gd32f307c_eval.c **** 
 206:../src/gd32f307c_eval.c ****     /* enable USART clock */
 207:../src/gd32f307c_eval.c ****     rcu_periph_clock_enable(COM_CLK[com_id]);
 587              		.loc 1 207 5
 588 0034 1D4A     		ldr	r2, .L25+12
 589 0036 FB68     		ldr	r3, [r7, #12]
 590 0038 32F81330 		ldrh	r3, [r2, r3, lsl #1]
 591 003c 1846     		mov	r0, r3
 592 003e FFF7FEFF 		bl	rcu_periph_clock_enable
 208:../src/gd32f307c_eval.c **** 
 209:../src/gd32f307c_eval.c ****     /* connect port to USARTx_Tx */
 210:../src/gd32f307c_eval.c ****     gpio_init(COM_GPIO_PORT[com_id], GPIO_MODE_AF_PP, GPIO_OSPEED_50MHZ, COM_TX_PIN[com_id]);
 593              		.loc 1 210 5
 594 0042 1B4A     		ldr	r2, .L25+16
 595 0044 FB68     		ldr	r3, [r7, #12]
 596 0046 52F82300 		ldr	r0, [r2, r3, lsl #2]
 597 004a 1A4A     		ldr	r2, .L25+20
 598 004c FB68     		ldr	r3, [r7, #12]
 599 004e 52F82330 		ldr	r3, [r2, r3, lsl #2]
 600 0052 0322     		movs	r2, #3
 601 0054 1821     		movs	r1, #24
 602 0056 FFF7FEFF 		bl	gpio_init
 211:../src/gd32f307c_eval.c **** 
 212:../src/gd32f307c_eval.c ****     /* connect port to USARTx_Rx */
 213:../src/gd32f307c_eval.c ****     gpio_init(COM_GPIO_PORT[com_id], GPIO_MODE_IN_FLOATING, GPIO_OSPEED_50MHZ, COM_RX_PIN[com_id]);
 603              		.loc 1 213 5
 604 005a 154A     		ldr	r2, .L25+16
 605 005c FB68     		ldr	r3, [r7, #12]
 606 005e 52F82300 		ldr	r0, [r2, r3, lsl #2]
 607 0062 154A     		ldr	r2, .L25+24
 608 0064 FB68     		ldr	r3, [r7, #12]
 609 0066 52F82330 		ldr	r3, [r2, r3, lsl #2]
 610 006a 0322     		movs	r2, #3
 611 006c 0421     		movs	r1, #4
 612 006e FFF7FEFF 		bl	gpio_init
 214:../src/gd32f307c_eval.c **** 
 215:../src/gd32f307c_eval.c ****     /* USART configure */
 216:../src/gd32f307c_eval.c ****     usart_deinit(com);
 613              		.loc 1 216 5
 614 0072 7868     		ldr	r0, [r7, #4]
 615 0074 FFF7FEFF 		bl	usart_deinit
 217:../src/gd32f307c_eval.c ****     usart_baudrate_set(com, 115200U);
 616              		.loc 1 217 5
 617 0078 4FF4E131 		mov	r1, #115200
 618 007c 7868     		ldr	r0, [r7, #4]
 619 007e FFF7FEFF 		bl	usart_baudrate_set
 218:../src/gd32f307c_eval.c ****     usart_receive_config(com, USART_RECEIVE_ENABLE);
 620              		.loc 1 218 5
 621 0082 0421     		movs	r1, #4
 622 0084 7868     		ldr	r0, [r7, #4]
 623 0086 FFF7FEFF 		bl	usart_receive_config
 219:../src/gd32f307c_eval.c ****     usart_transmit_config(com, USART_TRANSMIT_ENABLE);
 624              		.loc 1 219 5
 625 008a 0821     		movs	r1, #8
 626 008c 7868     		ldr	r0, [r7, #4]
 627 008e FFF7FEFF 		bl	usart_transmit_config
 220:../src/gd32f307c_eval.c ****     usart_enable(com);
 628              		.loc 1 220 5
 629 0092 7868     		ldr	r0, [r7, #4]
 630 0094 FFF7FEFF 		bl	usart_enable
 221:../src/gd32f307c_eval.c **** }
 631              		.loc 1 221 1
 632 0098 00BF     		nop
 633 009a 1037     		adds	r7, r7, #16
 634              		.cfi_def_cfa_offset 8
 635 009c BD46     		mov	sp, r7
 636              		.cfi_def_cfa_register 13
 637              		@ sp needed
 638 009e 80BD     		pop	{r7, pc}
 639              	.L26:
 640              		.align	2
 641              	.L25:
 642 00a0 00380140 		.word	1073821696
 643 00a4 00440040 		.word	1073759232
 644 00a8 00000000 		.word	COM_GPIO_CLK
 645 00ac 00000000 		.word	COM_CLK
 646 00b0 00000000 		.word	COM_GPIO_PORT
 647 00b4 00000000 		.word	COM_TX_PIN
 648 00b8 00000000 		.word	COM_RX_PIN
 649              		.cfi_endproc
 650              	.LFE122:
 652              		.text
 653              	.Letext0:
 654              		.file 2 "../Firmware/CMSIS/GD/GD32F30x/Include/gd32f30x.h"
 655              		.file 3 "c:\\gd32embeddedbuilder_1.5.3.31964\\gd32embeddedbuilder_1.5.3.31964\\tools\\gnu tools ar
 656              		.file 4 "c:\\gd32embeddedbuilder_1.5.3.31964\\gd32embeddedbuilder_1.5.3.31964\\tools\\gnu tools ar
 657              		.file 5 "../Firmware/CMSIS/core_cm4.h"
 658              		.file 6 "../Firmware/CMSIS/GD/GD32F30x/Include/system_gd32f30x.h"
 659              		.file 7 "../Firmware/GD32F30x_standard_peripheral/Include/gd32f30x_rcu.h"
 660              		.file 8 "../Firmware/GD32F30x_standard_peripheral/Include/gd32f30x_dbg.h"
 661              		.file 9 "../Firmware/GD32F30x_standard_peripheral/Include/gd32f30x_exti.h"
 662              		.file 10 "../Firmware/GD32F30x_standard_peripheral/Include/gd32f30x_gpio.h"
 663              		.file 11 "../inc/gd32f307c_eval.h"